(dp1
S'output'
p2
S"<type 'exceptions.NameError'> name 'pregunta' is not defined"
p3
sS'layer'
p4
S'/opt/python/web2py/web2py/applications/cvrf/views/resource/revised.html'
p5
sS'code'
p6
S'response.write(\'<!DOCTYPE html>\\n<!--[if (gt IE 9)|!(IE)]><!--> <html class="no-js" lang="\', escape=False)\nresponse.write(T.accepted_language or \'en\')\nresponse.write(\'"> <!--<![endif]-->\\n  <head>\\n    <meta charset="utf-8">\\n    <!-- www.phpied.com/conditional-comments-block-downloads/ -->\\n    <!-- Always force latest IE rendering engine\\n         (even in intranet) & Chrome Frame\\n         Remove this if you use the .htaccess -->\\n    <meta http-equiv="X-UA-Compatible" content="IE=edge\', escape=False)\nresponse.write(not request.is_local and \',chrome=1\' or \'\')\nresponse.write(\'">\\n    <!--  Mobile Viewport Fix\\n          j.mp/mobileviewport & davidbcalhoun.com/2010/viewport-metatag\\n          device-width: Occupy full width of the screen in its current orientation\\n          initial-scale = 1.0 retains dimensions instead of zooming out if page height > device height\\n          user-scalable = yes allows the user to zoom in -->\\n    <meta name="viewport" content="width=device-width, initial-scale=1.0">\\n    <title>\', escape=False)\nresponse.write(response.title or request.application)\nresponse.write(\'</title>\\n    <!-- http://dev.w3.org/html5/markup/meta.name.html -->\\n    <meta name="application-name" content="\', escape=False)\nresponse.write(request.application)\nresponse.write(\'">\\n    <!-- Speaking of Google, don\\\'t forget to set your site up:\\n         http://google.com/webmasters -->\\n    <meta name="google-site-verification" content="">\\n    <!-- include stylesheets -->\\n    <link rel="stylesheet" href="\', escape=False)\nresponse.write(URL(\'static\',\'css/bootstrap.min.css\'))\nresponse.write(\'"/>\\n    <link rel="stylesheet" href="\', escape=False)\nresponse.write(URL(\'static\',\'css/mdb.min.css\'))\nresponse.write(\'"/>\\n    <link rel="stylesheet" href="\', escape=False)\nresponse.write(URL(\'static\',\'css/style.css\'))\nresponse.write(\'"/>\\n    <link rel="stylesheet" href="\', escape=False)\nresponse.write(URL(\'static\',\'css/web2py-bootstrap3.css\'))\nresponse.write(\'"/>\\n    <link rel="shortcut icon" href="\', escape=False)\nresponse.write(URL(\'static\',\'img/favicon.ico\'))\nresponse.write(\'" type="image/x-icon">\\n    <link rel="apple-touch-icon" href="\', escape=False)\nresponse.write(URL(\'static\',\'img/favicon.png\'))\nresponse.write(\'">\\n    <!-- All JavaScript at the bottom, except for Modernizr which enables\\n         HTML5 elements & feature detects -->\\n    <script src="\', escape=False)\nresponse.write(URL(\'static\',\'js/modernizr-2.8.3.min.js\'))\nresponse.write(\'"></script>\\n    <!--[if lt IE 9]>\\n        <script src="\', escape=False)\nresponse.write(URL(\'static\',\'js/respond-1.4.2.min.js\'))\nresponse.write(\'"></script>\\n        <![endif]-->\\n    <!-- Favicons -->\\n    \', escape=False)\nresponse.write(\'<script type="text/javascript"><!--\\n    // These variables are used by the web2py_ajax_init function in web2py_ajax.js (which is loaded below).\\n    var w2p_ajax_confirm_message = "\', escape=False)\nresponse.write(T(\'Are you sure you want to delete this object?\'))\nresponse.write(\'";\\n    var w2p_ajax_disable_with_message = "\', escape=False)\nresponse.write(T(\'Working...\'))\nresponse.write(\'";\\n    var w2p_ajax_date_format = "\', escape=False)\nresponse.write(T(\'%Y-%m-%d\'))\nresponse.write(\'";\\n    var w2p_ajax_datetime_format = "\', escape=False)\nresponse.write(T(\'%Y-%m-%d %H:%M:%S\'))\nresponse.write(\'";\\n    var ajax_error_500 = \\\'\', escape=False)\nresponse.write(T.M(\'An error occured, please [[reload %s]] the page\') % URL(args=request.args, vars=request.get_vars))\nresponse.write("\'\\n    //--></script>\\n", escape=False)\nresponse.files.insert(0,URL(\'static\',\'js/jquery-3.1.1.min.js\'))\nresponse.files.insert(1,URL(\'static\',\'css/calendar.css\'))\nresponse.files.insert(2,URL(\'static\',\'js/calendar.js\'))\nresponse.files.insert(3,URL(\'static\',\'js/web2py.js\'))\nresponse.include_meta()\nresponse.include_files()\nresponse.write(\'\\n\', escape=False)\nresponse.write(\' <!-- this includes jquery.js, calendar.js/.css and web2py.js -->\\n    \', escape=False)\nresponse.write(\'\\n\', escape=False)\nresponse.write(\'\\n<link href="\', escape=False)\nresponse.write(URL(\'static\', \'css/summernote/summernote.css\'))\nresponse.write(\'" rel="stylesheet" type="text/css" />\\n<link href="\', escape=False)\nresponse.write(URL(\'static\', \'css/font-awesome.min.css\'))\nresponse.write(\'" rel="stylesheet" type="text/css" />\\n\\n\', escape=False)\nresponse.write(\'\\n    \', escape=False)\n# using sidebars need to know what sidebar you want to use\nmc0 = \'col-md-12\'\nmc1 = \'col-md-9\'\nmc2 = \'col-md-6\'\nleft_sidebar_enabled = globals().get(\'left_sidebar_enabled\', False)\nright_sidebar_enabled = globals().get(\'right_sidebar_enabled\', False)\nmiddle_column = {0: mc0, 1: mc1, 2: mc2}[\n(left_sidebar_enabled and 1 or 0)+(right_sidebar_enabled and 1 or 0)]\nresponse.write(\'\\n  </head>\\n  <body id="\', escape=False)\nif request.function == \'admin_table\':\n    response.write(request.args(0))\nelse:\n    response.write(request.function)\n    pass\nresponse.write(\'" data-spy="scroll" data-target="#navbar-repository">\\n    <!--[if lt IE 8]><p class="browserupgrade">You are using an <strong>outdated</strong> browser. Please <a href="http://browsehappy.com/">upgrade your browser</a> to improve your experience.</p><![endif]-->\\n    <div class="w2p_flash alert alert-dismissable">\', escape=False)\nresponse.write(response.flash or \'\')\nresponse.write(\'</div>\\n    <!-- Navbar ======================================= -->\\n    <nav class="navbar navbar-default navbar-fixed-top scrolling-navbar" role="navigation">\\n      <div class="container-fluid">\\n        <div class="navbar-header">\\n          <button type="button" class="navbar-toggle" data-toggle="collapse" data-target=".navbar-collapse">\\n            <span class="sr-only">Toggle navigation</span>\\n            <span class="icon-bar"></span>\\n            <span class="icon-bar"></span>\\n            <span class="icon-bar"></span>\\n          </button>\\n        </div>\\n        <div class="collapse navbar-collapse navbar-ex1-collapse">\\n            <div id="navbar-repository">\\n              <ul class="nav navbar-nav navbar-right">\\n                \', escape=False)\nresponse.write(\'auth\' in globals() and auth.navbar(\'Welcome\',mode=\'dropdown\') or \'\')\nresponse.write(\'\\n              </ul>\\n              \', escape=False)\nif response.menu:\n    response.write(\'\\n                  \', escape=False)\n    response.write(MENU(response.menu, _class=\'nav navbar-nav\',li_class=\'dropdown\',ul_class=\'dropdown-menu\'))\n    response.write(\'\\n              \', escape=False)\n    pass\nresponse.write(\'\\n            </div>\\n        </div>\\n      </div>\\n    </nav>\\n    <!-- Masthead ===================================== -->\\n    \', escape=False)\nresponse.write(\'\\n\\n<br />\\n\\n<div class="container-fluid">\\n    <div class="row">\\n        <div class="col-md-12">\\n            <h1>\', escape=False)\nresponse.write(T(\'Resource\'))\nresponse.write(\'</h1>\\n            <hr>\\n        </div>\\n    </div>\\n</div>\\n\', escape=False)\nresponse.write(\'\\n    <!-- Main ========================================= -->\\n    <!-- Begin page content -->\\n    <div class="container-fluid main-container">\\n      \', escape=False)\nif left_sidebar_enabled:\n    response.write(\'\\n        <div class="col-md-3 left-sidebar">\\n            \', escape=False)\n    response.write(\'\\n            <h3>Left Sidebar</h3>\\n            <p></p>\\n            \', escape=False)\n    response.write(\'\\n        </div>\\n      \', escape=False)\n    pass\nresponse.write(\'\\n\\n      <div class="\', escape=False)\nresponse.write(middle_column)\nresponse.write(\'">\\n        \', escape=False)\nresponse.write(\'\\n        \', escape=False)\nresponse.write(\'\\n\\n\', escape=False)\nresponse.write(\'\\n\\n\', escape=False)\nif ("edit" in request.args) or ("view" in request.args):\n    response.write(\'\\n    <div id="grid" class="col-md-7">\\n        \', escape=False)\n    response.write(grid)\n    response.write(\'\\n    </div>\\n\\n    <div id="grid" class="col-md-5">\\n        \', escape=False)\n    for review in reviews:\n        response.write(\'\\n            <!--Card-->\\n            <div class="card wow fadeInRightBig" data-wow-delay="0.2s" style="padding: 10px;">\\n                <!--Card title-->\\n                <div class="overlay hm-white-slight">\\n                        dfasdf\\n                        <!--Text-->\\n                        <hr/>\\n                </div>\\n                <div class="overlay hm-white-slight">\\n                    <!--Text-->\\n                    <div class="col-md-12">\\n                        <p class="card-text">\', escape=False)\n        response.write(P(pregunta.descripcion))\n        response.write(\'</p>\\n                    </div>\\n                </div>\\n                <!--/.Card title-->\\n\\n                <!--Card content-->\\n                <div class="card-block text-xs-center">\\n                    <div class="row">\\n                        <div class="col-md-12">\\n                            <div class="alert alert-success alert-dismissible message" role="alert">\', escape=False)\n        response.write(T(\'Responda la respuesta\'))\n        response.write(\'</div>\\n                        </div>\\n                    </div>\\n\\n                    <div class="row">\\n                        <div class="col-md-6 col-md-offset-1">\\n                        </div>\\n                    </div>\\n                </div>\\n            </div>\\n            <!--/.Card content-->\\n        \', escape=False)\n        pass\n    response.write(\'\\n    </div>\\n\', escape=False)\nelse:\n    response.write(\'\\n    <div id="grid" class="col-md-12">\\n        \', escape=False)\n    response.write(grid)\n    response.write(\'\\n    </div>\\n\', escape=False)\n    pass\nresponse.write(\'\\n\\n\', escape=False)\nresponse.write(\'\\n\\n\', escape=False)\nlanguage = \'en-EN\'\nresponse.write(\'\\n\', escape=False)\nif (T.accepted_language == \'es\' ):\n    response.write(\'\\n   \', escape=False)\n    language = \'es-ES\'\n    response.write(\'\\n\', escape=False)\n    pass\nresponse.write(\'\\n\\n\', escape=False)\nresponse.write(\'\\n\', escape=False)\nresponse.write(\'\\n        \', escape=False)\nresponse.write(\'\\n      </div>\\n\\n      \', escape=False)\nif right_sidebar_enabled:\n    response.write(\'\\n        <div class="col-md-3">\\n            \', escape=False)\n    response.write(\'\\n            <h3>Right Sidebar</h3>\\n            <p></p>\\n            \', escape=False)\n    response.write(\'\\n        </div>\\n      \', escape=False)\n    pass\nresponse.write(\'\\n\\n    </div>\\n\\n    \', escape=False)\nresponse.write(\'\\n        <!--Footer-->\\n        <footer class="page-footer">\\n            <!--Copyright-->\\n            <div class="footer-copyright">\\n                <div class="container-fluid">\\n                    <div class="copyright pull-left">\\n                      <h3>\', escape=False)\nresponse.write(T(\'Copyright\'))\nresponse.write(\' &#169; \', escape=False)\nresponse.write(T(\'Todos los Derechos Reservados\'))\nresponse.write(\' 2014-\', escape=False)\nresponse.write(request.now.year)\nresponse.write(\'</h3>\\n                    </div>\\n                      <div id="poweredBy" class="pull-right">\\n                        \', escape=False)\nresponse.write(T(\'Powered by\'))\nresponse.write(\'\\n                        <a href="http://web2py.com/">Web2py</a>\\n                      </div>\\n                </div>\\n            </div>\\n            <!--/.Copyright-->\\n        </footer>\\n        <!--/.Footer-->\\n    \', escape=False)\nresponse.write(\'\\n    <!-- The javascript =============================== -->\\n    <script src="\', escape=False)\nresponse.write(URL(\'static\',\'js/bootstrap.min.js\'))\nresponse.write(\'"></script>\\n    <script src="\', escape=False)\nresponse.write(URL(\'static\',\'js/web2py-bootstrap3.js\'))\nresponse.write(\'"></script>\\n    <script src="\', escape=False)\nresponse.write(URL(\'static\',\'js/mdb.min.js\'))\nresponse.write(\'"></script>\\n    <script>\\n        $(function(){\\n            $(\\\'[data-toggle="tooltip"]\\\').tooltip();\\n        });\\n    </script>\\n    \', escape=False)\nresponse.write(\'\\n  \', escape=False)\nresponse.write(\'\\n  <script src="\', escape=False)\nresponse.write(URL(\'static\', \'js/summernote/summernote.min.js\'))\nresponse.write(\'"></script>\\n    \', escape=False)\nif language == \'es-ES\':\n    response.write(\'\\n       <script src="\', escape=False)\n    response.write(URL(\'static\', \'js/summernote/locales/summernote-es-ES.js\'))\n    response.write(\'"></script>\\n    \', escape=False)\n    pass\nresponse.write("\\n<script>\\n $(function() {\\n     $(\'#resource_coverpag__row > div > div > span\').hide();\\n\\n     /*Visibility of the resource description*/\\n     $(\'#resource_description\').summernote({fontNames: [\'Arial\', \'MyriadPro-Light\', \'MyriadPro-Regular\'],\\n            toolbar: [\\n            //[groupname, [button list]]\\n               [\'style\', [\'style\', \'bold\',\'italic\', \'underline\', \'clear\']],\\n               [\'font\', [\'strikethrough\', \'superscript\', \'subscript\']],\\n               [\'fontsize\', [\'fontname\']],\\n               [\'color\', [\'color\']],\\n               [\'para\', [\'ul\', \'ol\', \'paragraph\']],\\n               [\'height\', [\'height\']],\\n               [\'insert\', [\'link\', \'table\', \'hr\']],\\n               [\'misc\', [\'fullscreen\', \'codeview\', \'undo\',\'redo\', \'help\']],\\n            ],\\n            lang: \'", escape=False)\nresponse.write(language)\nresponse.write("\',\\n            height: 250,   //set editable area\'s height\\n    });\\n });\\n</script>\\n", escape=False)\nresponse.write(\'\\n    <!-- Animations init-->\\n    <script>\\n        new WOW().init();\\n    </script>\\n    <!-- Share ============================y============ -->\\n    <script src="\', escape=False)\nresponse.write(URL(\'static\',\'js/share.js\',vars=dict(static=URL(\'static\',\'img\'))))\nresponse.write(\'"></script>\\n  </body>\\n</html>\\n\', escape=False)'
p7
sS'snapshot'
p8
(dp9
S'exception'
p10
(dp11
S'__hash__'
p12
S"<method-wrapper '__hash__' of exceptions.NameError object>"
p13
sS'__setattr__'
p14
S"<method-wrapper '__setattr__' of exceptions.NameError object>"
p15
sS'__reduce_ex__'
p16
S'<built-in method __reduce_ex__ of exceptions.NameError object>'
p17
sS'__getslice__'
p18
S"<method-wrapper '__getslice__' of exceptions.NameError object>"
p19
sS'__getitem__'
p20
S"<method-wrapper '__getitem__' of exceptions.NameError object>"
p21
sS'__setstate__'
p22
S'<built-in method __setstate__ of exceptions.NameError object>'
p23
sS'args'
p24
S'("name \'pregunta\' is not defined",)'
p25
sS'__reduce__'
p26
S'<built-in method __reduce__ of exceptions.NameError object>'
p27
sS'__str__'
p28
S"<method-wrapper '__str__' of exceptions.NameError object>"
p29
sS'__format__'
p30
S'<built-in method __format__ of exceptions.NameError object>'
p31
sS'__getattribute__'
p32
S"<method-wrapper '__getattribute__' of exceptions.NameError object>"
p33
sS'__class__'
p34
S"<type 'exceptions.NameError'>"
p35
sS'__unicode__'
p36
S'<built-in method __unicode__ of exceptions.NameError object>'
p37
sS'__delattr__'
p38
S"<method-wrapper '__delattr__' of exceptions.NameError object>"
p39
sS'__subclasshook__'
p40
S'<built-in method __subclasshook__ of type object>'
p41
sS'__repr__'
p42
S"<method-wrapper '__repr__' of exceptions.NameError object>"
p43
sS'__dict__'
p44
S'{}'
p45
sS'__sizeof__'
p46
S'<built-in method __sizeof__ of exceptions.NameError object>'
p47
sS'__doc__'
p48
S"'Name not found globally.'"
p49
sS'__init__'
p50
S"<method-wrapper '__init__' of exceptions.NameError object>"
p51
sS'__new__'
p52
S'<built-in method __new__ of type object>'
p53
ssS'evalue'
p54
S"name 'pregunta' is not defined"
p55
sS'request'
p56
cgluon.html
XML_unpickle
p57
(S's\xe2h\x00\x00<div><table><tr><td style="font-weight:bold;vertical-align:top;">ajax</td><td style="vertical-align:top;">:</td><td><div>False</div></td></tr><tr><td style="font-weight:bold;vertical-align:top;">application</td><td style="vertical-align:top;">:</td><td><div>cvrf</div></td></tr><tr><td style="font-weight:bold;vertical-align:top;">args</td><td style="vertical-align:top;">:</td><td><div><table><tr><td><div>edit</div></td></tr><tr><td><div>resource</div></td></tr><tr><td><div>38</div></td></tr></table></div></td></tr><tr><td style="font-weight:bold;vertical-align:top;">cid</td><td style="vertical-align:top;">:</td><td><div>None</div></td></tr><tr><td style="font-weight:bold;vertical-align:top;">client</td><td style="vertical-align:top;">:</td><td><div>127.0.0.1</div></td></tr><tr><td style="font-weight:bold;vertical-align:top;">controller</td><td style="vertical-align:top;">:</td><td><div>resource</div></td></tr><tr><td style="font-weight:bold;vertical-align:top;">cookies</td><td style="vertical-align:top;">:</td><td><div><table><tr><td style="font-weight:bold;vertical-align:top;">locale</td><td style="vertical-align:top;">:</td><td><div>es<table><tr><td style="font-weight:bold;vertical-align:top;">comment</td><td style="vertical-align:top;">:</td><td><div></div></td></tr><tr><td style="font-weight:bold;vertical-align:top;">domain</td><td style="vertical-align:top;">:</td><td><div></div></td></tr><tr><td style="font-weight:bold;vertical-align:top;">expires</td><td style="vertical-align:top;">:</td><td><div></div></td></tr><tr><td style="font-weight:bold;vertical-align:top;">httponly</td><td style="vertical-align:top;">:</td><td><div></div></td></tr><tr><td style="font-weight:bold;vertical-align:top;">max-age</td><td style="vertical-align:top;">:</td><td><div></div></td></tr><tr><td style="font-weight:bold;vertical-align:top;">path</td><td style="vertical-align:top;">:</td><td><div></div></td></tr><tr><td style="font-weight:bold;vertical-align:top;">secure</td><td style="vertical-align:top;">:</td><td><div></div></td></tr><tr><td style="font-weight:bold;vertical-align:top;">version</td><td style="vertical-align:top;">:</td><td><div></div></td></tr></table></div></td></tr><tr><td style="font-weight:bold;vertical-align:top;">session_id_admin</td><td style="vertical-align:top;">:</td><td><div>127.0.0.1-48bdaa19-24c3-401c-8937-d8885425a295<table><tr><td style="font-weight:bold;vertical-align:top;">comment</td><td style="vertical-align:top;">:</td><td><div></div></td></tr><tr><td style="font-weight:bold;vertical-align:top;">domain</td><td style="vertical-align:top;">:</td><td><div></div></td></tr><tr><td style="font-weight:bold;vertical-align:top;">expires</td><td style="vertical-align:top;">:</td><td><div></div></td></tr><tr><td style="font-weight:bold;vertical-align:top;">httponly</td><td style="vertical-align:top;">:</td><td><div></div></td></tr><tr><td style="font-weight:bold;vertical-align:top;">max-age</td><td style="vertical-align:top;">:</td><td><div></div></td></tr><tr><td style="font-weight:bold;vertical-align:top;">path</td><td style="vertical-align:top;">:</td><td><div></div></td></tr><tr><td style="font-weight:bold;vertical-align:top;">secure</td><td style="vertical-align:top;">:</td><td><div></div></td></tr><tr><td style="font-weight:bold;vertical-align:top;">version</td><td style="vertical-align:top;">:</td><td><div></div></td></tr></table></div></td></tr><tr><td style="font-weight:bold;vertical-align:top;">session_id_cvrf</td><td style="vertical-align:top;">:</td><td><div>127.0.0.1-fa30252d-55f1-4a6b-b593-5038f8505905<table><tr><td style="font-weight:bold;vertical-align:top;">comment</td><td style="vertical-align:top;">:</td><td><div></div></td></tr><tr><td style="font-weight:bold;vertical-align:top;">domain</td><td style="vertical-align:top;">:</td><td><div></div></td></tr><tr><td style="font-weight:bold;vertical-align:top;">expires</td><td style="vertical-align:top;">:</td><td><div></div></td></tr><tr><td style="font-weight:bold;vertical-align:top;">httponly</td><td style="vertical-align:top;">:</td><td><div></div></td></tr><tr><td style="font-weight:bold;vertical-align:top;">max-age</td><td style="vertical-align:top;">:</td><td><div></div></td></tr><tr><td style="font-weight:bold;vertical-align:top;">path</td><td style="vertical-align:top;">:</td><td><div></div></td></tr><tr><td style="font-weight:bold;vertical-align:top;">secure</td><td style="vertical-align:top;">:</td><td><div></div></td></tr><tr><td style="font-weight:bold;vertical-align:top;">version</td><td style="vertical-align:top;">:</td><td><div></div></td></tr></table></div></td></tr><tr><td style="font-weight:bold;vertical-align:top;">session_id_proyect</td><td style="vertical-align:top;">:</td><td><div>127.0.0.1-3bdbbdd5-c48f-4e3e-9891-6b7019a15fd0<table><tr><td style="font-weight:bold;vertical-align:top;">comment</td><td style="vertical-align:top;">:</td><td><div></div></td></tr><tr><td style="font-weight:bold;vertical-align:top;">domain</td><td style="vertical-align:top;">:</td><td><div></div></td></tr><tr><td style="font-weight:bold;vertical-align:top;">expires</td><td style="vertical-align:top;">:</td><td><div></div></td></tr><tr><td style="font-weight:bold;vertical-align:top;">httponly</td><td style="vertical-align:top;">:</td><td><div></div></td></tr><tr><td style="font-weight:bold;vertical-align:top;">max-age</td><td style="vertical-align:top;">:</td><td><div></div></td></tr><tr><td style="font-weight:bold;vertical-align:top;">path</td><td style="vertical-align:top;">:</td><td><div></div></td></tr><tr><td style="font-weight:bold;vertical-align:top;">secure</td><td style="vertical-align:top;">:</td><td><div></div></td></tr><tr><td style="font-weight:bold;vertical-align:top;">version</td><td style="vertical-align:top;">:</td><td><div></div></td></tr></table></div></td></tr><tr><td style="font-weight:bold;vertical-align:top;">session_id_welcome</td><td style="vertical-align:top;">:</td><td><div>127.0.0.1-293f2289-6902-4471-add7-de77ea2472e3<table><tr><td style="font-weight:bold;vertical-align:top;">comment</td><td style="vertical-align:top;">:</td><td><div></div></td></tr><tr><td style="font-weight:bold;vertical-align:top;">domain</td><td style="vertical-align:top;">:</td><td><div></div></td></tr><tr><td style="font-weight:bold;vertical-align:top;">expires</td><td style="vertical-align:top;">:</td><td><div></div></td></tr><tr><td style="font-weight:bold;vertical-align:top;">httponly</td><td style="vertical-align:top;">:</td><td><div></div></td></tr><tr><td style="font-weight:bold;vertical-align:top;">max-age</td><td style="vertical-align:top;">:</td><td><div></div></td></tr><tr><td style="font-weight:bold;vertical-align:top;">path</td><td style="vertical-align:top;">:</td><td><div></div></td></tr><tr><td style="font-weight:bold;vertical-align:top;">secure</td><td style="vertical-align:top;">:</td><td><div></div></td></tr><tr><td style="font-weight:bold;vertical-align:top;">version</td><td style="vertical-align:top;">:</td><td><div></div></td></tr></table></div></td></tr></table></div></td></tr><tr><td style="font-weight:bold;vertical-align:top;">env</td><td style="vertical-align:top;">:</td><td><div><table><tr><td style="font-weight:bold;vertical-align:top;">HTTP_ACCEPT</td><td style="vertical-align:top;">:</td><td><div>text/html,application/xhtml+xml,application/xml;q=0.9,image/webp,*/*;q=0.8</div></td></tr><tr><td style="font-weight:bold;vertical-align:top;">HTTP_ACCEPT_ENCODING</td><td style="vertical-align:top;">:</td><td><div>gzip, deflate, sdch, br</div></td></tr><tr><td style="font-weight:bold;vertical-align:top;">HTTP_ACCEPT_LANGUAGE</td><td style="vertical-align:top;">:</td><td><div>es-ES,es;q=0.8</div></td></tr><tr><td style="font-weight:bold;vertical-align:top;">HTTP_CACHE_CONTROL</td><td style="vertical-align:top;">:</td><td><div>max-age=0</div></td></tr><tr><td style="font-weight:bold;vertical-align:top;">HTTP_CONNECTION</td><td style="vertical-align:top;">:</td><td><div>keep-alive</div></td></tr><tr><td style="font-weight:bold;vertical-align:top;">HTTP_COOKIE</td><td style="vertical-align:top;">:</td><td><div>locale=es; session_id_welcome=127.0.0.1-293f2289-6902-4471-add7-de77ea2472e3; session_id_proyect=127.0.0.1-3bdbbdd5-c48f-4e3e-9891-6b7019a15fd0; session_id_cvrf=127.0.0.1-fa30252d-55f1-4a6b-b593-5038f8505905; session_id_admin=127.0.0.1-48bdaa19-24c3-401c-8937-d8885425a295</div></td></tr><tr><td style="font-weight:bold;vertical-align:top;">HTTP_HOST</td><td style="vertical-align:top;">:</td><td><div>localhost:8000</div></td></tr><tr><td style="font-weight:bold;vertical-align:top;">HTTP_REFERER</td><td style="vertical-align:top;">:</td><td><div>http://localhost:8000/cvrf/resource/revised</div></td></tr><tr><td style="font-weight:bold;vertical-align:top;">HTTP_UPGRADE_INSECURE_REQUESTS</td><td style="vertical-align:top;">:</td><td><div>1</div></td></tr><tr><td style="font-weight:bold;vertical-align:top;">HTTP_USER_AGENT</td><td style="vertical-align:top;">:</td><td><div>Mozilla/5.0 (X11; Linux x86_64) AppleWebKit/537.36 (KHTML, like Gecko) Ubuntu Chromium/56.0.2924.76 Chrome/56.0.2924.76 Safari/537.36</div></td></tr><tr><td style="font-weight:bold;vertical-align:top;">PATH_INFO</td><td style="vertical-align:top;">:</td><td><div>/cvrf/resource/revised/edit/resource/38</div></td></tr><tr><td style="font-weight:bold;vertical-align:top;">QUERY_STRING</td><td style="vertical-align:top;">:</td><td><div>_signature=bbbde833fee077609e2a05999355d082f297e753</div></td></tr><tr><td style="font-weight:bold;vertical-align:top;">REMOTE_ADDR</td><td style="vertical-align:top;">:</td><td><div>127.0.0.1</div></td></tr><tr><td style="font-weight:bold;vertical-align:top;">REMOTE_PORT</td><td style="vertical-align:top;">:</td><td><div>48060</div></td></tr><tr><td style="font-weight:bold;vertical-align:top;">REQUEST_METHOD</td><td style="vertical-align:top;">:</td><td><div>GET</div></td></tr><tr><td style="font-weight:bold;vertical-align:top;">SCRIPT_NAME</td><td style="vertical-align:top;">:</td><td><div></div></td></tr><tr><td style="font-weight:bold;vertical-align:top;">SERVER_NAME</td><td style="vertical-align:top;">:</td><td><div>yasmany-tp500lab</div></td></tr><tr><td style="font-weight:bold;vertical-align:top;">SERVER_PORT</td><td style="vertical-align:top;">:</td><td><div>8000</div></td></tr><tr><td style="font-weight:bold;vertical-align:top;">SERVER_PROTOCOL</td><td style="vertical-align:top;">:</td><td><div>HTTP/1.1</div></td></tr><tr><td style="font-weight:bold;vertical-align:top;">SERVER_SOFTWARE</td><td style="vertical-align:top;">:</td><td><div>Rocket 1.2.6</div></td></tr><tr><td style="font-weight:bold;vertical-align:top;">app_folders</td><td style="vertical-align:top;">:</td><td><div>set([&#x27;/opt/python/web2py/web2py/applications/cvrf/&#x27;, &#x27;/opt/python/web2py/web2py/applications/proyect/&#x27;, &#x27;/opt/python/web2py/web2py/applications/admin/&#x27;, &#x27;/opt/python/web2py/web2py/applications/welcome/&#x27;])</div></td></tr><tr><td style="font-weight:bold;vertical-align:top;">applications_parent</td><td style="vertical-align:top;">:</td><td><div>/opt/python/web2py/web2py</div></td></tr><tr><td style="font-weight:bold;vertical-align:top;">cmd_args</td><td style="vertical-align:top;">:</td><td><div><table></table></div></td></tr><tr><td style="font-weight:bold;vertical-align:top;">cmd_options</td><td style="vertical-align:top;">:</td><td><div>&lt;Values at 0x7f6dcc703248: {&#x27;verbose&#x27;: False, &#x27;ip&#x27;: &#x27;127.0.0.1&#x27;, &#x27;debuglevel&#x27;: 30, &#x27;with_scheduler&#x27;: False, &#x27;shutdown_timeout&#x27;: 5, &#x27;taskbar&#x27;: False, &#x27;with_coverage&#x27;: False, &#x27;pid_filename&#x27;: &#x27;httpserver.pid&#x27;, &#x27;maxthreads&#x27;: None, &#x27;softcron&#x27;: False, &#x27;server_name&#x27;: &#x27;yasmany-tp500lab&#x27;, &#x27;bpython&#x27;: False, &#x27;nogui&#x27;: False, &#x27;port&#x27;: 8000, &#x27;print_errors&#x27;: False, &#x27;extcron&#x27;: False, &#x27;runcron&#x27;: False, &#x27;run_system_tests&#x27;: False, &#x27;test&#x27;: None, &#x27;folder&#x27;: &#x27;/opt/python/web2py/web2py&#x27;, &#x27;config&#x27;: &#x27;&#x27;, &#x27;minthreads&#x27;: None, &#x27;shell&#x27;: None, &#x27;run&#x27;: &#x27;&#x27;, &#x27;log_filename&#x27;: &#x27;httpserver.log&#x27;, &#x27;profiler_dir&#x27;: None, &#x27;args&#x27;: [&#x27;&#x27;], &#x27;socket_timeout&#x27;: 5, &#x27;ssl_ca_certificate&#x27;: None, &#x27;scheduler&#x27;: None, &#x27;interfaces&#x27;: None, &#x27;ssl_private_key&#x27;: &#x27;&#x27;, &#x27;gae&#x27;: None, &#x27;password&#x27;: &#x27;******&#x27;, &#x27;request_queue_size&#x27;: 5, &#x27;ssl_certificate&#x27;: &#x27;&#x27;, &#x27;cronjob&#x27;: False, &#x27;numthreads&#x27;: None, &#x27;quiet&#x27;: False, &#x27;import_models&#x27;: False, &#x27;timeout&#x27;: 10, &#x27;plain&#x27;: False, &#x27;nobanner&#x27;: False}&gt;</div></td></tr><tr><td style="font-weight:bold;vertical-align:top;">db_sessions</td><td style="vertical-align:top;">:</td><td><div>set([])</div></td></tr><tr><td style="font-weight:bold;vertical-align:top;">debugging</td><td style="vertical-align:top;">:</td><td><div>True</div></td></tr><tr><td style="font-weight:bold;vertical-align:top;">gluon_parent</td><td style="vertical-align:top;">:</td><td><div>/opt/python/web2py/web2py</div></td></tr><tr><td style="font-weight:bold;vertical-align:top;">http_accept</td><td style="vertical-align:top;">:</td><td><div>text/html,application/xhtml+xml,application/xml;q=0.9,image/webp,*/*;q=0.8</div></td></tr><tr><td style="font-weight:bold;vertical-align:top;">http_accept_encoding</td><td style="vertical-align:top;">:</td><td><div>gzip, deflate, sdch, br</div></td></tr><tr><td style="font-weight:bold;vertical-align:top;">http_accept_language</td><td style="vertical-align:top;">:</td><td><div>es-ES,es;q=0.8</div></td></tr><tr><td style="font-weight:bold;vertical-align:top;">http_cache_control</td><td style="vertical-align:top;">:</td><td><div>max-age=0</div></td></tr><tr><td style="font-weight:bold;vertical-align:top;">http_connection</td><td style="vertical-align:top;">:</td><td><div>keep-alive</div></td></tr><tr><td style="font-weight:bold;vertical-align:top;">http_cookie</td><td style="vertical-align:top;">:</td><td><div>locale=es; session_id_welcome=127.0.0.1-293f2289-6902-4471-add7-de77ea2472e3; session_id_proyect=127.0.0.1-3bdbbdd5-c48f-4e3e-9891-6b7019a15fd0; session_id_cvrf=127.0.0.1-fa30252d-55f1-4a6b-b593-5038f8505905; session_id_admin=127.0.0.1-48bdaa19-24c3-401c-8937-d8885425a295</div></td></tr><tr><td style="font-weight:bold;vertical-align:top;">http_host</td><td style="vertical-align:top;">:</td><td><div>localhost:8000</div></td></tr><tr><td style="font-weight:bold;vertical-align:top;">http_referer</td><td style="vertical-align:top;">:</td><td><div>http://localhost:8000/cvrf/resource/revised</div></td></tr><tr><td style="font-weight:bold;vertical-align:top;">http_upgrade_insecure_requests</td><td style="vertical-align:top;">:</td><td><div>1</div></td></tr><tr><td style="font-weight:bold;vertical-align:top;">http_user_agent</td><td style="vertical-align:top;">:</td><td><div>Mozilla/5.0 (X11; Linux x86_64) AppleWebKit/537.36 (KHTML, like Gecko) Ubuntu Chromium/56.0.2924.76 Chrome/56.0.2924.76 Safari/537.36</div></td></tr><tr><td style="font-weight:bold;vertical-align:top;">is_jython</td><td style="vertical-align:top;">:</td><td><div>False</div></td></tr><tr><td style="font-weight:bold;vertical-align:top;">is_pypy</td><td style="vertical-align:top;">:</td><td><div>False</div></td></tr><tr><td style="font-weight:bold;vertical-align:top;">is_source</td><td style="vertical-align:top;">:</td><td><div>True</div></td></tr><tr><td style="font-weight:bold;vertical-align:top;">local_hosts</td><td style="vertical-align:top;">:</td><td><div><table><tr><td><div>yasmany-tp500lab</div></td></tr><tr><td><div>127.0.1.1</div></td></tr><tr><td><div>::ffff:127.0.0.1</div></td></tr><tr><td><div>::1</div></td></tr><tr><td><div>yasmany-TP500LAB</div></td></tr><tr><td><div>127.0.0.1</div></td></tr></table></div></td></tr><tr><td style="font-weight:bold;vertical-align:top;">path_info</td><td style="vertical-align:top;">:</td><td><div>/cvrf/resource/revised/edit/resource/38</div></td></tr><tr><td style="font-weight:bold;vertical-align:top;">query_string</td><td style="vertical-align:top;">:</td><td><div>_signature=bbbde833fee077609e2a05999355d082f297e753</div></td></tr><tr><td style="font-weight:bold;vertical-align:top;">remote_addr</td><td style="vertical-align:top;">:</td><td><div>127.0.0.1</div></td></tr><tr><td style="font-weight:bold;vertical-align:top;">remote_port</td><td style="vertical-align:top;">:</td><td><div>48060</div></td></tr><tr><td style="font-weight:bold;vertical-align:top;">request_method</td><td style="vertical-align:top;">:</td><td><div>GET</div></td></tr><tr><td style="font-weight:bold;vertical-align:top;">request_uri</td><td style="vertical-align:top;">:</td><td><div>/cvrf/resource/revised/edit/resource/38?_signature=bbbde833fee077609e2a05999355d082f297e753</div></td></tr><tr><td style="font-weight:bold;vertical-align:top;">script_name</td><td style="vertical-align:top;">:</td><td><div></div></td></tr><tr><td style="font-weight:bold;vertical-align:top;">server_name</td><td style="vertical-align:top;">:</td><td><div>yasmany-tp500lab</div></td></tr><tr><td style="font-weight:bold;vertical-align:top;">server_port</td><td style="vertical-align:top;">:</td><td><div>8000</div></td></tr><tr><td style="font-weight:bold;vertical-align:top;">server_protocol</td><td style="vertical-align:top;">:</td><td><div>HTTP/1.1</div></td></tr><tr><td style="font-weight:bold;vertical-align:top;">server_software</td><td style="vertical-align:top;">:</td><td><div>Rocket 1.2.6</div></td></tr><tr><td style="font-weight:bold;vertical-align:top;">web2py_path</td><td style="vertical-align:top;">:</td><td><div>/opt/python/web2py/web2py</div></td></tr><tr><td style="font-weight:bold;vertical-align:top;">web2py_version</td><td style="vertical-align:top;">:</td><td><div>2.14.6-stable+timestamp.2016.05.10.00.21.47</div></td></tr><tr><td style="font-weight:bold;vertical-align:top;">wsgi.errors</td><td style="vertical-align:top;">:</td><td><div>&lt;open file &#x27;&lt;stderr&gt;&#x27;, mode &#x27;w&#x27; at 0x7f6dd13f91e0&gt;</div></td></tr><tr><td style="font-weight:bold;vertical-align:top;">wsgi.file_wrapper</td><td style="vertical-align:top;">:</td><td><div>&lt;class wsgiref.util.FileWrapper at 0x7f6dcc750390&gt;</div></td></tr><tr><td style="font-weight:bold;vertical-align:top;">wsgi.input</td><td style="vertical-align:top;">:</td><td><div>&lt;socket._fileobject object at 0x7f6d8deb3950&gt;</div></td></tr><tr><td style="font-weight:bold;vertical-align:top;">wsgi.multiprocess</td><td style="vertical-align:top;">:</td><td><div>False</div></td></tr><tr><td style="font-weight:bold;vertical-align:top;">wsgi.multithread</td><td style="vertical-align:top;">:</td><td><div>True</div></td></tr><tr><td style="font-weight:bold;vertical-align:top;">wsgi.run_once</td><td style="vertical-align:top;">:</td><td><div>False</div></td></tr><tr><td style="font-weight:bold;vertical-align:top;">wsgi.url_scheme</td><td style="vertical-align:top;">:</td><td><div>http</div></td></tr><tr><td style="font-weight:bold;vertical-align:top;">wsgi.version</td><td style="vertical-align:top;">:</td><td><div><table><tr><td><div>1</div></td></tr><tr><td><div>0</div></td></tr></table></div></td></tr><tr><td style="font-weight:bold;vertical-align:top;">wsgi_errors</td><td style="vertical-align:top;">:</td><td><div>&lt;open file &#x27;&lt;stderr&gt;&#x27;, mode &#x27;w&#x27; at 0x7f6dd13f91e0&gt;</div></td></tr><tr><td style="font-weight:bold;vertical-align:top;">wsgi_file_wrapper</td><td style="vertical-align:top;">:</td><td><div>&lt;class wsgiref.util.FileWrapper at 0x7f6dcc750390&gt;</div></td></tr><tr><td style="font-weight:bold;vertical-align:top;">wsgi_input</td><td style="vertical-align:top;">:</td><td><div>&lt;socket._fileobject object at 0x7f6d8deb3950&gt;</div></td></tr><tr><td style="font-weight:bold;vertical-align:top;">wsgi_multiprocess</td><td style="vertical-align:top;">:</td><td><div>False</div></td></tr><tr><td style="font-weight:bold;vertical-align:top;">wsgi_multithread</td><td style="vertical-align:top;">:</td><td><div>True</div></td></tr><tr><td style="font-weight:bold;vertical-align:top;">wsgi_run_once</td><td style="vertical-align:top;">:</td><td><div>False</div></td></tr><tr><td style="font-weight:bold;vertical-align:top;">wsgi_url_scheme</td><td style="vertical-align:top;">:</td><td><div>http</div></td></tr><tr><td style="font-weight:bold;vertical-align:top;">wsgi_version</td><td style="vertical-align:top;">:</td><td><div><table><tr><td><div>1</div></td></tr><tr><td><div>0</div></td></tr></table></div></td></tr></table></div></td></tr><tr><td style="font-weight:bold;vertical-align:top;">extension</td><td style="vertical-align:top;">:</td><td><div>html</div></td></tr><tr><td style="font-weight:bold;vertical-align:top;">folder</td><td style="vertical-align:top;">:</td><td><div>/opt/python/web2py/web2py/applications/cvrf/</div></td></tr><tr><td style="font-weight:bold;vertical-align:top;">function</td><td style="vertical-align:top;">:</td><td><div>revised</div></td></tr><tr><td style="font-weight:bold;vertical-align:top;">global_settings</td><td style="vertical-align:top;">:</td><td><div><table><tr><td style="font-weight:bold;vertical-align:top;">app_folders</td><td style="vertical-align:top;">:</td><td><div>set([&#x27;/opt/python/web2py/web2py/applications/cvrf/&#x27;, &#x27;/opt/python/web2py/web2py/applications/proyect/&#x27;, &#x27;/opt/python/web2py/web2py/applications/admin/&#x27;, &#x27;/opt/python/web2py/web2py/applications/welcome/&#x27;])</div></td></tr><tr><td style="font-weight:bold;vertical-align:top;">applications_parent</td><td style="vertical-align:top;">:</td><td><div>/opt/python/web2py/web2py</div></td></tr><tr><td style="font-weight:bold;vertical-align:top;">cmd_args</td><td style="vertical-align:top;">:</td><td><div><table></table></div></td></tr><tr><td style="font-weight:bold;vertical-align:top;">cmd_options</td><td style="vertical-align:top;">:</td><td><div>&lt;Values at 0x7f6dcc703248: {&#x27;verbose&#x27;: False, &#x27;ip&#x27;: &#x27;127.0.0.1&#x27;, &#x27;debuglevel&#x27;: 30, &#x27;with_scheduler&#x27;: False, &#x27;shutdown_timeout&#x27;: 5, &#x27;taskbar&#x27;: False, &#x27;with_coverage&#x27;: False, &#x27;pid_filename&#x27;: &#x27;httpserver.pid&#x27;, &#x27;maxthreads&#x27;: None, &#x27;softcron&#x27;: False, &#x27;server_name&#x27;: &#x27;yasmany-tp500lab&#x27;, &#x27;bpython&#x27;: False, &#x27;nogui&#x27;: False, &#x27;port&#x27;: 8000, &#x27;print_errors&#x27;: False, &#x27;extcron&#x27;: False, &#x27;runcron&#x27;: False, &#x27;run_system_tests&#x27;: False, &#x27;test&#x27;: None, &#x27;folder&#x27;: &#x27;/opt/python/web2py/web2py&#x27;, &#x27;config&#x27;: &#x27;&#x27;, &#x27;minthreads&#x27;: None, &#x27;shell&#x27;: None, &#x27;run&#x27;: &#x27;&#x27;, &#x27;log_filename&#x27;: &#x27;httpserver.log&#x27;, &#x27;profiler_dir&#x27;: None, &#x27;args&#x27;: [&#x27;&#x27;], &#x27;socket_timeout&#x27;: 5, &#x27;ssl_ca_certificate&#x27;: None, &#x27;scheduler&#x27;: None, &#x27;interfaces&#x27;: None, &#x27;ssl_private_key&#x27;: &#x27;&#x27;, &#x27;gae&#x27;: None, &#x27;password&#x27;: &#x27;******&#x27;, &#x27;request_queue_size&#x27;: 5, &#x27;ssl_certificate&#x27;: &#x27;&#x27;, &#x27;cronjob&#x27;: False, &#x27;numthreads&#x27;: None, &#x27;quiet&#x27;: False, &#x27;import_models&#x27;: False, &#x27;timeout&#x27;: 10, &#x27;plain&#x27;: False, &#x27;nobanner&#x27;: False}&gt;</div></td></tr><tr><td style="font-weight:bold;vertical-align:top;">db_sessions</td><td style="vertical-align:top;">:</td><td><div>set([])</div></td></tr><tr><td style="font-weight:bold;vertical-align:top;">debugging</td><td style="vertical-align:top;">:</td><td><div>True</div></td></tr><tr><td style="font-weight:bold;vertical-align:top;">gluon_parent</td><td style="vertical-align:top;">:</td><td><div>/opt/python/web2py/web2py</div></td></tr><tr><td style="font-weight:bold;vertical-align:top;">is_jython</td><td style="vertical-align:top;">:</td><td><div>False</div></td></tr><tr><td style="font-weight:bold;vertical-align:top;">is_pypy</td><td style="vertical-align:top;">:</td><td><div>False</div></td></tr><tr><td style="font-weight:bold;vertical-align:top;">is_source</td><td style="vertical-align:top;">:</td><td><div>True</div></td></tr><tr><td style="font-weight:bold;vertical-align:top;">local_hosts</td><td style="vertical-align:top;">:</td><td><div><table><tr><td><div>yasmany-tp500lab</div></td></tr><tr><td><div>127.0.1.1</div></td></tr><tr><td><div>::ffff:127.0.0.1</div></td></tr><tr><td><div>::1</div></td></tr><tr><td><div>yasmany-TP500LAB</div></td></tr><tr><td><div>127.0.0.1</div></td></tr></table></div></td></tr><tr><td style="font-weight:bold;vertical-align:top;">web2py_version</td><td style="vertical-align:top;">:</td><td><div>2.14.6-stable+timestamp.2016.05.10.00.21.47</div></td></tr></table></div></td></tr><tr><td style="font-weight:bold;vertical-align:top;">is_https</td><td style="vertical-align:top;">:</td><td><div>False</div></td></tr><tr><td style="font-weight:bold;vertical-align:top;">is_local</td><td style="vertical-align:top;">:</td><td><div>True</div></td></tr><tr><td style="font-weight:bold;vertical-align:top;">is_restful</td><td style="vertical-align:top;">:</td><td><div>False</div></td></tr><tr><td style="font-weight:bold;vertical-align:top;">is_scheduler</td><td style="vertical-align:top;">:</td><td><div>False</div></td></tr><tr><td style="font-weight:bold;vertical-align:top;">is_shell</td><td style="vertical-align:top;">:</td><td><div>False</div></td></tr><tr><td style="font-weight:bold;vertical-align:top;">now</td><td style="vertical-align:top;">:</td><td><div>datetime.datetime(2017, 3, 10, 17, 23, 41, 572650)</div></td></tr><tr><td style="font-weight:bold;vertical-align:top;">raw_args</td><td style="vertical-align:top;">:</td><td><div>edit/resource/38</div></td></tr><tr><td style="font-weight:bold;vertical-align:top;">raw_extension</td><td style="vertical-align:top;">:</td><td><div>None</div></td></tr><tr><td style="font-weight:bold;vertical-align:top;">url</td><td style="vertical-align:top;">:</td><td><div>/cvrf/resource/revised/edit/resource/38</div></td></tr><tr><td style="font-weight:bold;vertical-align:top;">utcnow</td><td style="vertical-align:top;">:</td><td><div>datetime.datetime(2017, 3, 10, 22, 23, 41, 572688)</div></td></tr><tr><td style="font-weight:bold;vertical-align:top;">wsgi</td><td style="vertical-align:top;">:</td><td><div>&lt;gluon.main.LazyWSGI object at 0x7f6d8dc78fd0&gt;</div></td></tr></table></div>'
tRp58
sS'frames'
p59
(lp60
(dp61
S'file'
p62
S'/opt/python/web2py/web2py/gluon/restricted.py'
p63
sS'dump'
p64
(dp65
S'environment'
p66
S"{'A': <class 'gluon.html.A'>, 'ANY_OF': <class 'gluon.validators.ANY_OF'>, 'ASSIGNJS': <function ASSIGNJS>, 'AppConfig': <function AppConfig>, 'Auth': <class 'gluon.tools.Auth'>, 'B': <class 'gluon.html.B'>, 'BEAUTIFY': <class 'gluon.html.BEAUTIFY'>, 'BODY': <class 'gluon.html.BODY'>, 'BR': <class 'gluon.html.BR'>, 'BUTTON': <class 'gluon.html.BUTTON'>, ...}"
p67
sS'ccode'
p68
S'<code object <module> at 0x7f6d8e03deb0, file "/...ations/cvrf/views/resource/revised.html", line 1>'
p69
ssS'lnum'
p70
I227
sS'lines'
p71
(dp72
I224
S'            ccode = code'
p73
sI225
S'        else:'
p74
sI226
S'            ccode = compile2(code, layer)'
p75
sI227
S'        exec ccode in environment'
p76
sI228
S'    except HTTP:'
p77
sI229
S'        raise'
p78
sI230
S'    except RestrictedError:'
p79
sI231
S'        # do not encapsulate (obfuscate) the original RestrictedError'
p80
sI222
S'    try:'
p81
sI223
S'        if isinstance(code, types.CodeType):'
p82
ssS'call'
p83
S'(code=\'response.write(\\\'<!DOCTYPE html>\\\\n<!--[if (gt IE ..."></script>\\\\n  </body>\\\\n</html>\\\\n\\\', escape=False)\', environment={\'A\': <class \'gluon.html.A\'>, \'ANY_OF\': <class \'gluon.validators.ANY_OF\'>, \'ASSIGNJS\': <function ASSIGNJS>, \'AppConfig\': <function AppConfig>, \'Auth\': <class \'gluon.tools.Auth\'>, \'B\': <class \'gluon.html.B\'>, \'BEAUTIFY\': <class \'gluon.html.BEAUTIFY\'>, \'BODY\': <class \'gluon.html.BODY\'>, \'BR\': <class \'gluon.html.BR\'>, \'BUTTON\': <class \'gluon.html.BUTTON\'>, ...}, layer=\'/opt/python/web2py/web2py/applications/cvrf/views/resource/revised.html\')'
p84
sS'func'
p85
S'restricted'
p86
sa(dp87
g62
S'/opt/python/web2py/web2py/applications/cvrf/views/resource/revised.html'
p88
sg64
(dp89
S'lang'
p90
S'undefined'
p91
ssg70
I98
sg71
(dp92
I96
S'    for review in reviews:'
p93
sI97
S'        response.write(\'\\n            <!--Card-->\\n            <div class="card wow fadeInRightBig" data-wow-delay="0.2s" style="padding: 10px;">\\n                <!--Card title-->\\n                <div class="overlay hm-white-slight">\\n                        dfasdf\\n                        <!--Text-->\\n                        <hr/>\\n                </div>\\n                <div class="overlay hm-white-slight">\\n                    <!--Text-->\\n                    <div class="col-md-12">\\n                        <p class="card-text">\', escape=False)'
p94
sI98
S'        response.write(P(pregunta.descripcion))'
p95
sI99
S'        response.write(\'</p>\\n                    </div>\\n                </div>\\n                <!--/.Card title-->\\n\\n                <!--Card content-->\\n                <div class="card-block text-xs-center">\\n                    <div class="row">\\n                        <div class="col-md-12">\\n                            <div class="alert alert-success alert-dismissible message" role="alert">\', escape=False)'
p96
sI100
S"        response.write(T('Responda la respuesta'))"
p97
sI101
S'        response.write(\'</div>\\n                        </div>\\n                    </div>\\n\\n                    <div class="row">\\n                        <div class="col-md-6 col-md-offset-1">\\n                        </div>\\n                    </div>\\n                </div>\\n            </div>\\n            <!--/.Card content-->\\n        \', escape=False)'
p98
sI102
S'        pass'
p99
sI103
S"    response.write('\\n    </div>\\n', escape=False)"
p100
sI104
S'else:'
p101
sI105
S'    response.write(\'\\n    <div id="grid" class="col-md-12">\\n        \', escape=False)'
p102
sI106
S'    response.write(grid)'
p103
sI107
S"    response.write('\\n    </div>\\n', escape=False)"
p104
sI108
S'    pass'
p105
sI89
S"response.write('\\n        ', escape=False)"
p106
sI90
S"response.write('\\n\\n', escape=False)"
p107
sI91
S"response.write('\\n\\n', escape=False)"
p108
sI92
S'if ("edit" in request.args) or ("view" in request.args):'
p109
sI93
S'    response.write(\'\\n    <div id="grid" class="col-md-7">\\n        \', escape=False)'
p110
sI94
S'    response.write(grid)'
p111
sI95
S'    response.write(\'\\n    </div>\\n\\n    <div id="grid" class="col-md-5">\\n        \', escape=False)'
p112
ssg83
S'()'
p113
sg85
S'<module>'
p114
sasS'pyver'
p115
S'Python 2.7.12: /usr/bin/python (prefix: /usr)'
p116
sS'session'
p117
g57
(S's\xb6\x0e\x00\x00<div><table><tr><td style="font-weight:bold;vertical-align:top;">auth</td><td style="vertical-align:top;">:</td><td><div><table><tr><td style="font-weight:bold;vertical-align:top;">expiration</td><td style="vertical-align:top;">:</td><td><div>3600</div></td></tr><tr><td style="font-weight:bold;vertical-align:top;">hmac_key</td><td style="vertical-align:top;">:</td><td><div>520b9abf-5c0a-45bc-8116-c62cba5ab3d8</div></td></tr><tr><td style="font-weight:bold;vertical-align:top;">last_visit</td><td style="vertical-align:top;">:</td><td><div>datetime.datetime(2017, 3, 10, 17, 23, 41, 572650)</div></td></tr><tr><td style="font-weight:bold;vertical-align:top;">remember_me</td><td style="vertical-align:top;">:</td><td><div>False</div></td></tr><tr><td style="font-weight:bold;vertical-align:top;">user</td><td style="vertical-align:top;">:</td><td><div><table><tr><td style="font-weight:bold;vertical-align:top;">categories</td><td style="vertical-align:top;">:</td><td><div><table><tr><td><div>3L</div></td></tr><tr><td><div>2L</div></td></tr></table></div></td></tr><tr><td style="font-weight:bold;vertical-align:top;">categories_review</td><td style="vertical-align:top;">:</td><td><div><table><tr><td><div>3L</div></td></tr><tr><td><div>2L</div></td></tr></table></div></td></tr><tr><td style="font-weight:bold;vertical-align:top;">email</td><td style="vertical-align:top;">:</td><td><div>danilo@upr.edu.cu</div></td></tr><tr><td style="font-weight:bold;vertical-align:top;">first_name</td><td style="vertical-align:top;">:</td><td><div>Danilo</div></td></tr><tr><td style="font-weight:bold;vertical-align:top;">id</td><td style="vertical-align:top;">:</td><td><div>3L</div></td></tr><tr><td style="font-weight:bold;vertical-align:top;">last_name</td><td style="vertical-align:top;">:</td><td><div>Pereda</div></td></tr><tr><td style="font-weight:bold;vertical-align:top;">notification</td><td style="vertical-align:top;">:</td><td><div>True</div></td></tr><tr><td style="font-weight:bold;vertical-align:top;">photo</td><td style="vertical-align:top;">:</td><td><div>auth_user.photo.911c9dcb30eb89db.757365722d69636f6e2d362e706e67.png</div></td></tr><tr><td style="font-weight:bold;vertical-align:top;">registration_id</td><td style="vertical-align:top;">:</td><td><div></div></td></tr><tr><td style="font-weight:bold;vertical-align:top;">registration_key</td><td style="vertical-align:top;">:</td><td><div></div></td></tr><tr><td style="font-weight:bold;vertical-align:top;">reset_password_key</td><td style="vertical-align:top;">:</td><td><div></div></td></tr><tr><td style="font-weight:bold;vertical-align:top;">types</td><td style="vertical-align:top;">:</td><td><div><table><tr><td><div>2L</div></td></tr></table></div></td></tr><tr><td style="font-weight:bold;vertical-align:top;">username</td><td style="vertical-align:top;">:</td><td><div>danilo</div></td></tr></table></div></td></tr><tr><td style="font-weight:bold;vertical-align:top;">user_groups</td><td style="vertical-align:top;">:</td><td><div><table><tr><td style="font-weight:bold;vertical-align:top;">1</td><td style="vertical-align:top;">:</td><td><div>Administrador</div></td></tr><tr><td style="font-weight:bold;vertical-align:top;">2</td><td style="vertical-align:top;">:</td><td><div>Revisor</div></td></tr></table></div></td></tr></table></div></td></tr><tr><td style="font-weight:bold;vertical-align:top;">flash</td><td style="vertical-align:top;">:</td><td><div>None</div></td></tr><tr><td style="font-weight:bold;vertical-align:top;">last_orderby</td><td style="vertical-align:top;">:</td><td><div>None</div></td></tr><tr><td style="font-weight:bold;vertical-align:top;">last_query</td><td style="vertical-align:top;">:</td><td><div>db.auth_user.id&gt;0</div></td></tr></table></div>'
tRp118
sS'etype'
p119
S"<type 'exceptions.NameError'>"
p120
sS'date'
p121
S'Fri Mar 10 17:23:41 2017'
p122
sS'response'
p123
g57
(S'sl2\x00\x00<div><table><tr><td style="font-weight:bold;vertical-align:top;">body</td><td style="vertical-align:top;">:</td><td><div>&lt;cStringIO.StringO object at 0x7f6d720a61f0&gt;</div></td></tr><tr><td style="font-weight:bold;vertical-align:top;">cookies</td><td style="vertical-align:top;">:</td><td><div><table><tr><td style="font-weight:bold;vertical-align:top;">session_id_cvrf</td><td style="vertical-align:top;">:</td><td><div>127.0.0.1-fa30252d-55f1-4a6b-b593-5038f8505905<table><tr><td style="font-weight:bold;vertical-align:top;">comment</td><td style="vertical-align:top;">:</td><td><div></div></td></tr><tr><td style="font-weight:bold;vertical-align:top;">domain</td><td style="vertical-align:top;">:</td><td><div></div></td></tr><tr><td style="font-weight:bold;vertical-align:top;">expires</td><td style="vertical-align:top;">:</td><td><div></div></td></tr><tr><td style="font-weight:bold;vertical-align:top;">httponly</td><td style="vertical-align:top;">:</td><td><div></div></td></tr><tr><td style="font-weight:bold;vertical-align:top;">max-age</td><td style="vertical-align:top;">:</td><td><div></div></td></tr><tr><td style="font-weight:bold;vertical-align:top;">path</td><td style="vertical-align:top;">:</td><td><div>/</div></td></tr><tr><td style="font-weight:bold;vertical-align:top;">secure</td><td style="vertical-align:top;">:</td><td><div></div></td></tr><tr><td style="font-weight:bold;vertical-align:top;">version</td><td style="vertical-align:top;">:</td><td><div></div></td></tr></table></div></td></tr></table></div></td></tr><tr><td style="font-weight:bold;vertical-align:top;">delimiters</td><td style="vertical-align:top;">:</td><td><div><table><tr><td><div>{{</div></td></tr><tr><td><div>}}</div></td></tr></table></div></td></tr><tr><td style="font-weight:bold;vertical-align:top;">files</td><td style="vertical-align:top;">:</td><td><div><table><tr><td><div>/cvrf/static/js/jquery-3.1.1.min.js</div></td></tr><tr><td><div>/cvrf/static/css/calendar.css</div></td></tr><tr><td><div>/cvrf/static/js/calendar.js</div></td></tr><tr><td><div>/cvrf/static/js/web2py.js</div></td></tr></table></div></td></tr><tr><td style="font-weight:bold;vertical-align:top;">flash</td><td style="vertical-align:top;">:</td><td><div>Para Revisar</div></td></tr><tr><td style="font-weight:bold;vertical-align:top;">form_label_separator</td><td style="vertical-align:top;">:</td><td><div></div></td></tr><tr><td style="font-weight:bold;vertical-align:top;">formstyle</td><td style="vertical-align:top;">:</td><td><div>bootstrap3_inline</div></td></tr><tr><td style="font-weight:bold;vertical-align:top;">generic_patterns</td><td style="vertical-align:top;">:</td><td><div><table><tr><td><div>*</div></td></tr></table></div></td></tr><tr><td style="font-weight:bold;vertical-align:top;">google_analytics_id</td><td style="vertical-align:top;">:</td><td><div>None</div></td></tr><tr><td style="font-weight:bold;vertical-align:top;">headers</td><td style="vertical-align:top;">:</td><td><div><table><tr><td style="font-weight:bold;vertical-align:top;">X-Powered-By</td><td style="vertical-align:top;">:</td><td><div>web2py</div></td></tr></table></div></td></tr><tr><td style="font-weight:bold;vertical-align:top;">logo</td><td style="vertical-align:top;">:</td><td><div><h5><a class="navbar-brand-name" data-target="#index" href="/cvrf/default/index" id="index"><img class="logo" src="/cvrf/static/img/favicon.png" /></a></h5></div></td></tr><tr><td style="font-weight:bold;vertical-align:top;">menu</td><td style="vertical-align:top;">:</td><td><div><table><tr><td><div><table><tr><td><div>home</div></td></tr><tr><td><div>False</div></td></tr><tr><td><div><a data-target="#homepage" href="/cvrf/default/index#homepage">Inicio</a></div></td></tr></table></div></td></tr><tr><td><div><table><tr><td><div>services</div></td></tr><tr><td><div>False</div></td></tr><tr><td><div><a data-target="#services" href="/cvrf/default/index#services">Servicios</a></div></td></tr></table></div></td></tr><tr><td><div><table><tr><td><div>about</div></td></tr><tr><td><div>False</div></td></tr><tr><td><div><a data-target="#about" href="/cvrf/default/index#about">Acerca de</a></div></td></tr></table></div></td></tr><tr><td><div><table><tr><td><div>information</div></td></tr><tr><td><div>False</div></td></tr><tr><td><div><a data-target="#information" href="/cvrf/default/index#information">Contact us</a></div></td></tr></table></div></td></tr><tr><td><div><table><tr><td><div>Administration</div></td></tr><tr><td><div>False</div></td></tr><tr><td><div>/cvrf/default/dashboard</div></td></tr><tr><td><div><table><tr><td><div><table><tr><td><div>user_roles</div></td></tr><tr><td><div>False</div></td></tr><tr><td><div><a data-target="#user_roles" href="/cvrf/admin/user_roles"><ico class="glyphicon glyphicon-user"></ico> Users</a></div></td></tr></table></div></td></tr><tr><td><div><table><tr><td><div>website</div></td></tr><tr><td><div>False</div></td></tr><tr><td><div><a data-target="#website" href="/cvrf/admin/website"><ico class="glyphicon glyphicon-home"></ico> Website</a></div></td></tr></table></div></td></tr><tr><td><div><table><tr><td><div>admin</div></td></tr><tr><td><div>False</div></td></tr><tr><td><div><a data-target="#admin" href="/cvrf/resource/admin"><ico class="glyphicon glyphicon-book"></ico> Resources</a></div></td></tr></table></div></td></tr><tr><td><div><table><tr><td><div>upload</div></td></tr><tr><td><div>False</div></td></tr><tr><td><div><a data-target="#upload_multiple" href="/cvrf/resource/upload_multiple"><ico class="glyphicon glyphicon-upload"></ico> Multiple Uploads</a></div></td></tr></table></div></td></tr><tr><td><div><table><tr><td><div>manage</div></td></tr><tr><td><div>False</div></td></tr><tr><td><div><a data-target="#manage" href="/cvrf/appadmin/index"><ico class="glyphicon glyphicon-lock"></ico> Appadmin</a></div></td></tr></table></div></td></tr><tr><td><div><table><tr><td><div>category</div></td></tr><tr><td><div>False</div></td></tr><tr><td><div><a data-target="#category" href="/cvrf/admin/category"><ico class="glyphicon glyphicon-tags"></ico> Categories</a></div></td></tr></table></div></td></tr><tr><td><div><table><tr><td><div>scheduler_task</div></td></tr><tr><td><div>False</div></td></tr><tr><td><div><a data-target="#scheduler_task" href="/cvrf/admin/scheduler_task"><ico class="glyphicon glyphicon-tasks"></ico> Scheduler Task</a></div></td></tr></table></div></td></tr><tr><td><div><table><tr><td><div>rtype</div></td></tr><tr><td><div>False</div></td></tr><tr><td><div><a data-target="#rtype" href="/cvrf/admin/table/rtype"><ico class="glyphicon glyphicon-tag"></ico> Types</a></div></td></tr></table></div></td></tr><tr><td><div><table><tr><td><div>language</div></td></tr><tr><td><div>False</div></td></tr><tr><td><div><a data-target="#language" href="/cvrf/resource/admin_table/language"><ico class="glyphicon glyphicon-flag"></ico> Language</a></div></td></tr></table></div></td></tr></table></div></td></tr></table></div></td></tr><tr><td><div><table><tr><td><div>Resource</div></td></tr><tr><td><div>False</div></td></tr><tr><td><div>/cvrf/default/dashboard</div></td></tr><tr><td><div><table><tr><td><div><table><tr><td><div>dashboard</div></td></tr><tr><td><div>False</div></td></tr><tr><td><div><a data-target="#dashboard" href="/cvrf/default/dashboard"><ico class="glyphicon glyphicon-home"></ico> Dashboard</a></div></td></tr></table></div></td></tr><tr><td><div><table><tr><td><div>upload</div></td></tr><tr><td><div>False</div></td></tr><tr><td><div><a data-target="#edites" href="/cvrf/resource/edites"><ico class="glyphicon glyphicon-upload"></ico> Upload and edit</a></div></td></tr></table></div></td></tr><tr><td><div><table><tr><td><div>resources</div></td></tr><tr><td><div>False</div></td></tr><tr><td><div><a data-target="#my_briefcase" href="/cvrf/resource/my_briefcase"><ico class="glyphicon glyphicon-briefcase"></ico> Mi malet\xc3\xadn</a></div></td></tr></table></div></td></tr><tr><td><div><table><tr><td><div>revised</div></td></tr><tr><td><div>False</div></td></tr><tr><td><div><a data-target="#revised" href="/cvrf/resource/revised"><ico class="glyphicon glyphicon-book"></ico> To Revised</a></div></td></tr></table></div></td></tr><tr><td><div><table><tr><td><div>publisher</div></td></tr><tr><td><div>False</div></td></tr><tr><td><div><a data-target="#publisher" href="/cvrf/resource/admin_table/publisher"><ico class="glyphicon glyphicon-edit"></ico> Publisher</a></div></td></tr></table></div></td></tr></table></div></td></tr></table></div></td></tr></table></div></td></tr><tr><td style="font-weight:bold;vertical-align:top;">meta</td><td style="vertical-align:top;">:</td><td><div><table><tr><td style="font-weight:bold;vertical-align:top;">author</td><td style="vertical-align:top;">:</td><td><div>Ing. Yasmany Santalla Pereda &lt;ysantalla@upr.edu.cu&gt;</div></td></tr><tr><td style="font-weight:bold;vertical-align:top;">description</td><td style="vertical-align:top;">:</td><td><div>La comunidad virtual de recursos forestales es un espacio virtual para compartir informaci\xc3\xb3n cient\xc3\xadfica del sector forestal en todas sus diversas formas.</div></td></tr><tr><td style="font-weight:bold;vertical-align:top;">generator</td><td style="vertical-align:top;">:</td><td><div>Web2py Web Framework</div></td></tr><tr><td style="font-weight:bold;vertical-align:top;">keywords</td><td style="vertical-align:top;">:</td><td><div><table><tr><td><div>Comunidad</div></td></tr><tr><td><div>recursos</div></td></tr><tr><td><div>virtual</div></td></tr><tr><td><div>forestal</div></td></tr><tr><td><div>OAI-PMH</div></td></tr><tr><td><div>compartir</div></td></tr></table></div></td></tr></table></div></td></tr><tr><td style="font-weight:bold;vertical-align:top;">models_to_run</td><td style="vertical-align:top;">:</td><td><div><table><tr><td><div>^\\w+\\.py$</div></td></tr><tr><td><div>^resource/\\w+\\.py$</div></td></tr><tr><td><div>^resource/revised/\\w+\\.py$</div></td></tr></table></div></td></tr><tr><td style="font-weight:bold;vertical-align:top;">postprocessing</td><td style="vertical-align:top;">:</td><td><div><table></table></div></td></tr><tr><td style="font-weight:bold;vertical-align:top;">session_client</td><td style="vertical-align:top;">:</td><td><div>127.0.0.1</div></td></tr><tr><td style="font-weight:bold;vertical-align:top;">session_cookie_compression_level</td><td style="vertical-align:top;">:</td><td><div>None</div></td></tr><tr><td style="font-weight:bold;vertical-align:top;">session_cookie_expires</td><td style="vertical-align:top;">:</td><td><div>None</div></td></tr><tr><td style="font-weight:bold;vertical-align:top;">session_data_name</td><td style="vertical-align:top;">:</td><td><div>session_data_cvrf</div></td></tr><tr><td style="font-weight:bold;vertical-align:top;">session_file</td><td style="vertical-align:top;">:</td><td><div>&lt;open file &#x27;/opt/python/web2py/web2py/applications/cvrf/sessions/18b/058/127.0.0.1-fa30252d-55f1-4a6b-b593-5038f8505905&#x27;, mode &#x27;rb+&#x27; at 0x7f6d8e110270&gt;</div></td></tr><tr><td style="font-weight:bold;vertical-align:top;">session_filename</td><td style="vertical-align:top;">:</td><td><div>/opt/python/web2py/web2py/applications/cvrf/sessions/127.0.0.1-fa30252d-55f1-4a6b-b593-5038f8505905</div></td></tr><tr><td style="font-weight:bold;vertical-align:top;">session_hash</td><td style="vertical-align:top;">:</td><td><div>8d6553029a28f0fae2971805dbd16297</div></td></tr><tr><td style="font-weight:bold;vertical-align:top;">session_id</td><td style="vertical-align:top;">:</td><td><div>127.0.0.1-fa30252d-55f1-4a6b-b593-5038f8505905</div></td></tr><tr><td style="font-weight:bold;vertical-align:top;">session_id_name</td><td style="vertical-align:top;">:</td><td><div>session_id_cvrf</div></td></tr><tr><td style="font-weight:bold;vertical-align:top;">session_locked</td><td style="vertical-align:top;">:</td><td><div>True</div></td></tr><tr><td style="font-weight:bold;vertical-align:top;">session_masterapp</td><td style="vertical-align:top;">:</td><td><div>cvrf</div></td></tr><tr><td style="font-weight:bold;vertical-align:top;">session_new</td><td style="vertical-align:top;">:</td><td><div>False</div></td></tr><tr><td style="font-weight:bold;vertical-align:top;">session_storage_type</td><td style="vertical-align:top;">:</td><td><div>file</div></td></tr><tr><td style="font-weight:bold;vertical-align:top;">status</td><td style="vertical-align:top;">:</td><td><div>200</div></td></tr><tr><td style="font-weight:bold;vertical-align:top;">subtitle</td><td style="vertical-align:top;">:</td><td><div></div></td></tr><tr><td style="font-weight:bold;vertical-align:top;">title</td><td style="vertical-align:top;">:</td><td><div>Para Revisar | CVRF</div></td></tr><tr><td style="font-weight:bold;vertical-align:top;">view</td><td style="vertical-align:top;">:</td><td><div>resource/revised.html</div></td></tr></table></div>'
tRp124
sS'locals'
p125
(dp126
S'__category'
p127
S'<function __category>'
p128
sS'Service'
p129
S"<class 'gluon.tools.Service'>"
p130
sS'OBJECT'
p131
S"<class 'gluon.html.OBJECT'>"
p132
sS'SQLDB'
p133
S"<class 'pydal.base.DAL'>"
p134
sS'__photo'
p135
S'<function __photo>'
p136
sg117
S"<Storage {'last_query': 'db.auth_user.id>0', '_a...6b2c0', '47fe253f-c71e-47f3-9bdc-fc9b04879e6a']}>"
p137
sS'LINK'
p138
S"<class 'gluon.html.LINK'>"
p139
sS'db_task'
p140
S'<DAL uri="sqlite://storage.sqlite_task">'
p141
sS'BR'
p142
S"<class 'gluon.html.BR'>"
p143
sS'local_import'
p144
S'<function <lambda>>'
p145
sS'OPTGROUP'
p146
S"<class 'gluon.html.OPTGROUP'>"
p147
sS'__package__'
p148
S'None'
p149
sS'PRE'
p150
S"<class 'gluon.html.PRE'>"
p151
sS'IS_INT_IN_RANGE'
p152
S"<class 'gluon.validators.IS_INT_IN_RANGE'>"
p153
sS'left_sidebar_enabled'
p154
S'False'
p155
sS'IS_LOWER'
p156
S"<class 'gluon.validators.IS_LOWER'>"
p157
sS'IS_STRONG'
p158
S"<class 'gluon.validators.IS_STRONG'>"
p159
sS'cache'
p160
S'<gluon.cache.Cache object>'
p161
sS'IS_IN_DB'
p162
S"<class 'gluon.validators.IS_IN_DB'>"
p163
sS'TAG'
p164
S'<gluon.html.__TAG__ object>'
p165
sS'Scheduler'
p166
S"<class 'gluon.scheduler.Scheduler'>"
p167
sS'SQLField'
p168
S"<class 'pydal.objects.Field'>"
p169
sS'mail'
p170
S'<gluon.tools.Mail object>'
p171
sS'BODY'
p172
S"<class 'gluon.html.BODY'>"
p173
sS'IS_DATE_IN_RANGE'
p174
S"<class 'gluon.validators.IS_DATE_IN_RANGE'>"
p175
sS'IFRAME'
p176
S"<class 'gluon.html.IFRAME'>"
p177
sS'admin_notifications'
p178
S'<function admin_notifications>'
p179
sS'URL'
p180
S'<function URL>'
p181
sS'__file__'
p182
S"'/opt/python/web2py/web2py/applications/cvrf/views/resource/revised.html'"
p183
sS'db'
p184
S'<DAL uri="sqlite://storage.sqlite1">'
p185
sS'auth'
p186
S'<gluon.tools.Auth object>'
p187
sS'P'
S"<class 'gluon.html.P'>"
p188
sS'grid'
p189
S'<gluon.html.DIV object>'
p190
sS'TFOOT'
p191
S"<class 'gluon.html.TFOOT'>"
p192
sS'scheduler'
p193
S'<Scheduler(Thread-819, initial daemon)>'
p194
sS'XHTML'
p195
S"<class 'gluon.html.XHTML'>"
p196
sS'datetime'
p197
S"<type 'datetime.datetime'>"
p198
sS'ON'
p199
S'True'
p200
sS'OL'
p201
S"<class 'gluon.html.OL'>"
p202
sS'revisor_notifications'
p203
S'<function revisor_notifications>'
p204
sS'TEXTAREA'
p205
S"<class 'gluon.html.TEXTAREA'>"
p206
sS'MENU'
p207
S"<class 'gluon.html.MENU'>"
p208
sS'subconjunto'
p209
S'<Set (state.id > 0)>'
p210
sS'ldap_auth'
p211
S'<function ldap_auth>'
p212
sS'IS_IMAGE'
p213
S"<class 'gluon.validators.IS_IMAGE'>"
p214
sS'email_auth'
p215
S'<function email_auth>'
p216
sS'EM'
p217
S"<class 'gluon.html.EM'>"
p218
sS'CODE'
p219
S"<class 'gluon.html.CODE'>"
p220
sS'HTTP'
p221
S"<class 'gluon.http.HTTP'>"
p222
sS'HR'
p223
S"<class 'gluon.html.HR'>"
p224
sS'IS_DATETIME'
p225
S"<class 'gluon.validators.IS_DATETIME'>"
p226
sS'STYLE'
p227
S"<class 'gluon.html.STYLE'>"
p228
sS'LABEL'
p229
S"<class 'gluon.html.LABEL'>"
p230
sS'CLEANUP'
p231
S"<class 'gluon.validators.CLEANUP'>"
p232
sS'plugins'
p233
S'<gluon.tools.PluginManager object>'
p234
sS'SELECT'
p235
S"<class 'gluon.html.SELECT'>"
p236
sS'CENTER'
p237
S"<class 'gluon.html.CENTER'>"
p238
sS'review'
p239
S"<Row {'resource': 38L, 'success': False, 'is_act...3, 10, 17, 18, 31), 'modified_by': 3L, 'id': 3L}>"
p240
sS'Auth'
p241
S"<class 'gluon.tools.Auth'>"
p242
sS'COL'
p243
S"<class 'gluon.html.COL'>"
p244
sS'__builtins__'
p245
S"{'ArithmeticError': <type 'exceptions.ArithmeticError'>, 'AssertionError': <type 'exceptions.AssertionError'>, 'AttributeError': <type 'exceptions.AttributeError'>, 'BaseException': <type 'exceptions.BaseException'>, 'BufferError': <type 'exceptions.BufferError'>, 'BytesWarning': <type 'exceptions.BytesWarning'>, 'DeprecationWarning': <type 'exceptions.DeprecationWarning'>, 'EOFError': <type 'exceptions.EOFError'>, 'Ellipsis': Ellipsis, 'EnvironmentError': <type 'exceptions.EnvironmentError'>, ...}"
p246
sS'HTML'
p247
S"<class 'gluon.html.HTML'>"
p248
sS'SQLFORM'
p249
S"<class 'gluon.sqlhtml.SQLFORM'>"
p250
sS'LOAD'
p251
S'<function LOAD>'
p252
sS'redirect'
p253
S'<function redirect>'
p254
sS'FIELDSET'
p255
S"<class 'gluon.html.FIELDSET'>"
p256
sS'IS_EQUAL_TO'
p257
S"<class 'gluon.validators.IS_EQUAL_TO'>"
p258
sS'PAGINATE'
p259
S'20'
p260
sS'embed64'
p261
S'<function embed64>'
p262
sS'IS_LIST_OF'
p263
S"<class 'gluon.validators.IS_LIST_OF'>"
p264
sS'__name__'
p265
S"'__restricted__'"
p266
sS'EMBED'
p267
S"<class 'gluon.html.EMBED'>"
p268
sS'_'
S'<function _>'
p269
sS'myconf'
p270
S"{'forms': {'formstyle': 'bootstrap3_inline', 'se...: 'sqlite://storage.sqlite1', 'pool_size': '10'}}"
p271
sS'H2'
p272
S"<class 'gluon.html.H2'>"
p273
sS'H3'
p274
S"<class 'gluon.html.H3'>"
p275
sS'AppConfig'
p276
S'<function AppConfig>'
p277
sS'H1'
p278
S"<class 'gluon.html.H1'>"
p279
sS'H6'
p280
S"<class 'gluon.html.H6'>"
p281
sS'H4'
p282
S"<class 'gluon.html.H4'>"
p283
sS'H5'
p284
S"<class 'gluon.html.H5'>"
p285
sS'UL'
p286
S"<class 'gluon.html.UL'>"
p287
sS'IS_UPPER'
p288
S"<class 'gluon.validators.IS_UPPER'>"
p289
sS'xmlescape'
p290
S'<function xmlescape>'
p291
sS'timed'
p292
S"<type 'datetime.timedelta'>"
p293
sS'IS_TIME'
p294
S"<class 'gluon.validators.IS_TIME'>"
p295
sS'os'
p296
S"<module 'os' from '/usr/lib/python2.7/os.pyc'>"
p297
sS'OPTION'
p298
S"<class 'gluon.html.OPTION'>"
p299
sS'TITLE'
p300
S"<class 'gluon.html.TITLE'>"
p301
sS'CRYPT'
p302
S"<class 'gluon.validators.CRYPT'>"
p303
sS'IS_EMPTY_OR'
p304
S"<class 'gluon.validators.IS_EMPTY_OR'>"
p305
sS'MARKMIN'
p306
S"<class 'gluon.html.MARKMIN'>"
p307
sS'ASSIGNJS'
p308
S'<function ASSIGNJS>'
p309
sS'INPUT'
p310
S"<class 'gluon.html.INPUT'>"
p311
sS'STRONG'
p312
S"<class 'gluon.html.STRONG'>"
p313
sS'mc2'
p314
S"'col-md-6'"
p315
sS'mc1'
p316
S"'col-md-9'"
p317
sS'mc0'
p318
S"'col-md-12'"
p319
sS'service'
p320
S'<gluon.tools.Service object>'
p321
sS'SCRIPT'
p322
S"<class 'gluon.html.SCRIPT'>"
p323
sS'PRODUCTION_MENU'
p324
g200
sS'TABLE'
p325
S"<class 'gluon.html.TABLE'>"
p326
sS'IS_IPV4'
p327
S"<class 'gluon.validators.IS_IPV4'>"
p328
sS'IS_LENGTH'
p329
S"<class 'gluon.validators.IS_LENGTH'>"
p330
sS'IS_IPV6'
p331
S"<class 'gluon.validators.IS_IPV6'>"
p332
sS'XML'
p333
S"<class 'gluon.html.XML'>"
p334
sS'B'
S"<class 'gluon.html.B'>"
p335
sS'IMG'
p336
S"<class 'gluon.html.IMG'>"
p337
sS'SQLTABLE'
p338
S"<class 'gluon.sqlhtml.SQLTABLE'>"
p339
sS'IS_MATCH'
p340
S"<class 'gluon.validators.IS_MATCH'>"
p341
sS'IS_ALPHANUMERIC'
p342
S"<class 'gluon.validators.IS_ALPHANUMERIC'>"
p343
sS'SPAN'
p344
S"<class 'gluon.html.SPAN'>"
p345
sS'IS_JSON'
p346
S"<class 'gluon.validators.IS_JSON'>"
p347
sS'IS_IPADDRESS'
p348
S"<class 'gluon.validators.IS_IPADDRESS'>"
p349
sS'app_resource'
p350
S"<module 'applications.cvrf.modules.app_resource' from 'applications/cvrf/modules/app_resource.pyc'>"
p351
sS'IS_SLUG'
p352
S"<class 'gluon.validators.IS_SLUG'>"
p353
sS'resourceUpdateBefore'
p354
S'<function resourceUpdateBefore>'
p355
sS'reviews'
p356
S'<Rows (3)>'
p357
sS'BEAUTIFY'
p358
S"<class 'gluon.html.BEAUTIFY'>"
p359
sS'META'
p360
S"<class 'gluon.html.META'>"
p361
sS'websiteUpdateBefore'
p362
S'<function websiteUpdateBefore>'
p363
sS'BUTTON'
p364
S"<class 'gluon.html.BUTTON'>"
p365
sS'website'
p366
S'None'
p367
sS'IS_DATE'
p368
S"<class 'gluon.validators.IS_DATE'>"
p369
sS'IS_EMAIL'
p370
S"<class 'gluon.validators.IS_EMAIL'>"
p371
sS'middle_column'
p372
S"'col-md-12'"
p373
sS'IS_NOT_EMPTY'
p374
S"<class 'gluon.validators.IS_NOT_EMPTY'>"
p375
sS'IS_FLOAT_IN_RANGE'
p376
S"<class 'gluon.validators.IS_FLOAT_IN_RANGE'>"
p377
sS'TBODY'
p378
S"<class 'gluon.html.TBODY'>"
p379
sS'CAT'
p380
S"<class 'gluon.html.CAT'>"
p381
sS'Field'
p382
S"<class 'pydal.objects.Field'>"
p383
sS'IS_LIST_OF_EMAILS'
p384
S"<class 'gluon.validators.IS_LIST_OF_EMAILS'>"
p385
sS'DIV'
p386
S"<class 'gluon.html.DIV'>"
p387
sS'LEGEND'
p388
S"<class 'gluon.html.LEGEND'>"
p389
sS'COLGROUP'
p390
S"<class 'gluon.html.COLGROUP'>"
p391
sS'DAL'
p392
S"<class 'pydal.base.DAL'>"
p393
sS'TT'
p394
S"<class 'gluon.html.TT'>"
p395
sS'TR'
p396
S"<class 'gluon.html.TR'>"
p397
sS'LI'
p398
S"<class 'gluon.html.LI'>"
p399
sS'right_sidebar_enabled'
p400
g155
sS'TH'
p401
S"<class 'gluon.html.TH'>"
p402
sS'TD'
p403
S"<class 'gluon.html.TD'>"
p404
sS'PluginManager'
p405
S"<class 'gluon.tools.PluginManager'>"
p406
sS'IS_URL'
p407
S"<class 'gluon.validators.IS_URL'>"
p408
sS'A'
S"<class 'gluon.html.A'>"
p409
sS'HEAD'
p410
S"<class 'gluon.html.HEAD'>"
p411
sS'IS_DATETIME_IN_RANGE'
p412
S"<class 'gluon.validators.IS_DATETIME_IN_RANGE'>"
p413
sS'FORM'
p414
S"<class 'gluon.html.FORM'>"
p415
sS'I'
S"<class 'gluon.html.I'>"
p416
sS'IS_NOT_IN_DB'
p417
S"<class 'gluon.validators.IS_NOT_IN_DB'>"
p418
sS'websiteInsertBefore'
p419
S'<function websiteInsertBefore>'
p420
sg123
S"<Storage {'body': <cStringIO.StringO object at 0...x7f6d8dea7c08>, 'view': 'resource/revised.html'}>"
p421
sS'THEAD'
p422
S"<class 'gluon.html.THEAD'>"
p423
sS'ANY_OF'
p424
S"<class 'gluon.validators.ANY_OF'>"
p425
sS'IS_NULL_OR'
p426
S"<class 'gluon.validators.IS_EMPTY_OR'>"
p427
sg56
S"<Storage {'_vars': None, 'function': 'revised', ... '/opt/python/web2py/web2py/applications/cvrf/'}>"
p428
sS'IS_EXPR'
p429
S"<class 'gluon.validators.IS_EXPR'>"
p430
sS'T'
S'<gluon.languages.translator object>'
p431
sS'IS_IN_SET'
p432
S"<class 'gluon.validators.IS_IN_SET'>"
p433
sS'IS_UPLOAD_FILENAME'
p434
S"<class 'gluon.validators.IS_UPLOAD_FILENAME'>"
p435
sS'resourceInsertBefore'
p436
S'<function resourceInsertBefore>'
p437
sS'user_notifications'
p438
S'<function user_notifications>'
p439
sS'IS_DECIMAL_IN_RANGE'
p440
S"<class 'gluon.validators.IS_DECIMAL_IN_RANGE'>"
p441
sssS'traceback'
p442
S'Traceback (most recent call last):\n  File "/opt/python/web2py/web2py/gluon/restricted.py", line 227, in restricted\n    exec ccode in environment\n  File "/opt/python/web2py/web2py/applications/cvrf/views/resource/revised.html", line 98, in <module>\n    lang: \'{{=language}}\',\nNameError: name \'pregunta\' is not defined\n'
p443
s.