(dp1
S'output'
p2
S"<type 'exceptions.SyntaxError'> invalid syntax (index.html, line 122)"
p3
sS'layer'
p4
S'/opt/python/web2py/web2py/applications/cvrf/views/default/index.html'
p5
sS'code'
p6
S'response.write(\'<!DOCTYPE html>\\n<!--[if (gt IE 9)|!(IE)]><!--> <html class="no-js" lang="\', escape=False)\nresponse.write(T.accepted_language or \'en\')\nresponse.write(\'"> <!--<![endif]-->\\n  <head>\\n    <meta charset="utf-8">\\n    <!-- www.phpied.com/conditional-comments-block-downloads/ -->\\n    <!-- Always force latest IE rendering engine\\n         (even in intranet) & Chrome Frame\\n         Remove this if you use the .htaccess -->\\n    <meta http-equiv="X-UA-Compatible" content="IE=edge\', escape=False)\nresponse.write(not request.is_local and \',chrome=1\' or \'\')\nresponse.write(\'">\\n    <!--  Mobile Viewport Fix\\n          j.mp/mobileviewport & davidbcalhoun.com/2010/viewport-metatag\\n          device-width: Occupy full width of the screen in its current orientation\\n          initial-scale = 1.0 retains dimensions instead of zooming out if page height > device height\\n          user-scalable = yes allows the user to zoom in -->\\n    <meta name="viewport" content="width=device-width, initial-scale=1.0">\\n    <title>\', escape=False)\nresponse.write(response.title or request.application)\nresponse.write(\'</title>\\n    <!-- http://dev.w3.org/html5/markup/meta.name.html -->\\n    <meta name="application-name" content="\', escape=False)\nresponse.write(request.application)\nresponse.write(\'">\\n    <!-- Speaking of Google, don\\\'t forget to set your site up:\\n         http://google.com/webmasters -->\\n    <meta name="google-site-verification" content="">\\n    <!-- include stylesheets -->\\n\\n    <link rel="stylesheet" href="\', escape=False)\nresponse.write(URL(\'static\',\'css/bootstrap.min.css\'))\nresponse.write(\'"/>\\n    <link rel="stylesheet" href="\', escape=False)\nresponse.write(URL(\'static\',\'css/mdb.min.css\'))\nresponse.write(\'">\\n    <link rel="stylesheet" href="\', escape=False)\nresponse.write(URL(\'static\',\'css/style_homepage.css\'))\nresponse.write(\'">\\n\\n    <link rel="shortcut icon" href="\', escape=False)\nresponse.write(URL(\'static\',\'img/favicon.ico\'))\nresponse.write(\'" type="image/x-icon">\\n    <link rel="apple-touch-icon" href="\', escape=False)\nresponse.write(URL(\'static\',\'img/favicon.png\'))\nresponse.write(\'">\\n    <!-- All JavaScript at the bottom, except for Modernizr which enables\\n         HTML5 elements & feature detects -->\\n\\n    <!--[if lt IE 9]>\\n        <script src="\', escape=False)\nresponse.write(URL(\'static\',\'js/respond-1.4.2.min.js\'))\nresponse.write(\'"></script>\\n        <![endif]-->\\n    <!-- Favicons -->\\n  </head>\\n\\n  <body id="homepage" data-spy="scroll" data-target="#navbar-homepage">\\n    <nav class="navbar navbar-dark navbar-fixed-top scrolling-navbar" role="navigation">\\n      <div class="container-fluid">\\n        <div class="navbar-header">\\n          <button type="button" class="navbar-toggle" data-toggle="collapse" data-target=".navbar-collapse">\\n            <span class="sr-only">Toggle navigation</span>\\n            <span class="icon-bar"></span>\\n            <span class="icon-bar"></span>\\n            <span class="icon-bar"></span>\\n          </button>\\n        </div>\\n        <div class="collapse navbar-collapse navbar-ex1-collapse">\\n            <div id="navbar-homepage">\\n              <ul class="nav navbar-nav navbar-right">\\n                \', escape=False)\nresponse.write(\'auth\' in globals() and auth.navbar(\'Welcome\',mode=\'dropdown\') or \'\')\nresponse.write(\'\\n              </ul>\\n              \', escape=False)\nif response.menu:\n    response.write(\'\\n                  \', escape=False)\n    response.write(MENU(response.menu, _class=\'nav navbar-nav\',li_class=\'dropdown nav-item\',ul_class=\'dropdown-menu\'))\n    response.write(\'\\n              \', escape=False)\n    pass\nresponse.write(\'\\n            </div>\\n        </div>\\n      </div>\\n    </nav>\\n    <!--Mask-->\\n    <div class="view hm-black-strong">\\n        <div class="full-bg-img">\\n            <div class="container-fluid">\\n                \', escape=False)\nresponse.write(\'\\n    <ul>\\n        <li>\\n            <h1 class="h1-responsive wow fadeInDown" data-wow-delay="0.2s">\', escape=False)\nresponse.write(T(\'Comunidad Virtual de Recursos Forestales\'))\nresponse.write(\'</h1></li>\\n        <li>\\n            <h2 class="wow fadeInDown">\', escape=False)\nresponse.write(T("Compartiendo la informaci\xc3\xb3n forestal"))\nresponse.write(\'</h2>\\n        </li>\\n        <li>\\n            <a href="#services" class="btn btn-default btn-lg wow fadeInRight" data-wow-delay="0.2s">\', escape=False)\nresponse.write(T("\xc2\xbfQu\xc3\xa9 necesitas hacer?"))\nresponse.write(\'</a>\\n        </li>\\n    </ul>\\n\', escape=False)\nresponse.write(\'\\n            </div>\\n        </div>\\n    </div>\\n    <!--/.Mask-->\\n\\n    <!-- Main container-->\\n    <section id="services" class="full-height">\\n        <div class="container-fluid">\\n            \', escape=False)\nresponse.write(\'\\n    <div class="row">\\n        <div class="col-md-6 col-md-offset-1">\\n            <h2 class="h2-responsive wow fadeInDown">\', escape=False)\nresponse.write(T("Servicios"))\nresponse.write(\'</h2>\\n        </div>\\n    </div>\\n\\n    <div class="row">\\n        <div class="col-md-3 col-md-offset-1">\\n            <!--Card-->\\n            <div class="card wow fadeInDown" data-wow-delay="0.2s">\\n                <!--Card image-->\\n                <div class="view overlay">\\n                   <img width="40%" src="\', escape=False)\nresponse.write(URL(\'static\', \'img/users.png\'))\nresponse.write(\'" class="img-fluid img-service" alt="">\\n                    <a href="\', escape=False)\nresponse.write(URL(\'default\', \'user\', args=[\'register\'], vars=dict(_next=URL())))\nresponse.write(\'">\\n                        <div class="mask"></div>\\n                    </a>\\n                </div>\\n                <!--/.Card image-->\\n\\n                <!--Card content-->\\n                <div class="card-block text-xs-center">\\n                    <!--Title-->\\n                    <a href="\', escape=False)\nresponse.write(URL(\'default\', \'user\', args=[\'register\'], vars=dict(_next=URL())))\nresponse.write(\'"><h4 class="card-title">\', escape=False)\nresponse.write(T("\xc3\x9anete"))\nresponse.write(\'</h4></a>\\n                    <hr>\\n                    <!--Text-->\\n                    <p class="card-text">\', escape=False)\nresponse.write(T("Miles de Recursos pueden ser buscados en nuestra Base de Datos"))\nresponse.write(\'</p>\\n                </div>\\n                <!--/.Card content-->\\n            </div>\\n        </div>\\n        <div class="col-md-3">\\n            <div class="card wow fadeInDown" data-wow-delay="0.3s">\\n                <!--Card image-->\\n                <div class="view overlay">\\n                   <img width="40%" src="\', escape=False)\nresponse.write(URL(\'static\', \'img/users.png\'))\nresponse.write(\'" class="img-fluid img-service" alt="">\\n                    <a href="\', escape=False)\nresponse.write(URL(\'resource\', \'search\'))\nresponse.write(\'">\\n                        <div class="mask"></div>\\n                    </a>\\n                </div>\\n                <!--/.Card image-->\\n\\n                <!--Card content-->\\n                <div class="card-block text-xs-center">\\n                    <!--Title-->\\n                    <a href="\', escape=False)\nresponse.write(URL(\'resource\', \'search\'))\nresponse.write(\'"><h4 class="card-title">\', escape=False)\nresponse.write(T("Buscar"))\nresponse.write(\'</h4></a>\\n                    <hr>\\n                    <!--Text-->\\n                    <p class="card-text">\', escape=False)\nresponse.write(T("Miles de Recursos pueden ser buscados en nuestra Base de Datos"))\nresponse.write(\'</p>\\n                </div>\\n                <!--/.Card content-->\\n            </div>\\n        </div>\\n        <div class="col-md-3">\\n            <div class="card wow fadeInDown" data-wow-delay="0.4s">\\n                <!--Card image-->\\n                <div class="view overlay">\\n                   <img width="40%" src="\', escape=False)\nresponse.write(URL(\'static\', \'img/users.png\'))\nresponse.write(\'" class="img-fluid img-service" alt="">\\n                    <a href="\', escape=False)\nresponse.write(URL(\'resource\', \'upload\'))\nresponse.write(\'">\\n                        <div class="mask"></div>\\n                    </a>\\n                </div>\\n                <!--/.Card image-->\\n\\n                <!--Card content-->\\n                <div class="card-block text-xs-center">\\n                    <!--Title-->\\n                    <a href="\', escape=False)\nresponse.write(URL(\'resource\', \'edites\'))\nresponse.write(\'"><h4 class="card-title">\', escape=False)\nresponse.write(T("Contribuir"))\nresponse.write(\'</h4></a>\\n                    <hr>\\n                    <!--Text-->\\n                    <p class="card-text">\', escape=False)\nresponse.write(T("Contribuir al enriquecimiento de nuestro acervo de informaci\xc3\xb3n forestal"))\nresponse.write(\'</p>\\n                </div>\\n                <!--/.Card content-->\\n            </div>\\n        </div>\\n    </div>\\n\\n    <div class="row">\\n        <div class="col-md-3 col-md-offset-1">\\n            <div class="card wow fadeInDown" data-wow-delay="0.5s">\\n                <!--Card image-->\\n                <div class="view overlay">\\n                   <img width="40%" src="\', escape=False)\nresponse.write(URL(\'static\', \'img/users.png\'))\nresponse.write(\'" class="img-fluid img-service" alt="">\\n                    <a href="\', escape=False)\nresponse.write(URL(\'oai\', \'index\'))\nresponse.write(\'">\\n                        <div class="mask"></div>\\n                    </a>\\n                </div>\\n                <!--/.Card image-->\\n\\n                <!--Card content-->\\n                <div class="card-block text-xs-center">\\n                    <!--Title-->\\n                    <a href="\', escape=False)\nresponse.write(URL(\'oai\', \'index\'))\nresponse.write(\'"><h4 class="card-title">\', escape=False)\nresponse.write(T("Index\xc3\xa1me"))\nresponse.write(\'</h4></a>\\n                    <hr>\\n                    <!--Text-->\\n                    <p class="card-text">\', escape=False)\nresponse.write(T("Registrar su revista para ser indexada en nuestra Base de Datos"))\nresponse.write(\'</p>\\n                </div>\\n                <!--/.Card content-->\\n            </div>\\n        </div>\\n        <div class="col-md-3">\\n            <div class="card wow fadeInDown" data-wow-delay="0.6s">\\n                <!--Card image-->\\n                <div class="view overlay">\\n                   <img width="40%" src="\', escape=False)\nresponse.write(URL(\'static\', \'img/users.png\'))\nresponse.write(\'" class="img-fluid img-service" alt="">\\n                    <a href="\', escape=False)\nresponse.write(URL(\'blog\', \'index\'))\nresponse.write(\'">\\n                        <div class="mask"></div>\\n                    </a>\\n                </div>\\n                <!--/.Card image-->\\n\\n                <!--Card content-->\\n                <div class="card-block text-xs-center">\\n                    <!--Title-->\\n                    <a href="\', escape=False)\nresponse.write(URL(\'blog\', \'index\'))\nresponse.write(\'"><h4 class="card-title">\', escape=False)\nresponse.write(T("Conoce la noticia"))\nresponse.write(\'</h4></a>\\n                    <hr>\\n                    <!--Text-->\\n                    <p class="card-text">\', escape=False)\nresponse.write(T("Connozca la primicia de eventos y actividades en el sector forestal"))\nresponse.write(\'</p>\\n                </div>\\n                <!--/.Card content-->\\n            </div>\\n        </div>\\n        <div class="col-md-3">\\n            <div class="card wow fadeInDown" data-wow-delay="0.7s">\\n                <!--Card image-->\\n                <div class="view overlay">\\n                   <img width="40%" src="\', escape=False)\nresponse.write(URL(\'static\', \'img/users.png\'))\nresponse.write(\'" class="img-fluid img-service" alt="">\\n                    <a href="\', escape=False)\nresponse.write(URL(\'forum\', \'index\'))\nresponse.write(\'">\\n                        <div class="mask"></div>\\n                    </a>\\n                </div>\\n                <!--/.Card image-->\\n\\n                <!--Card content-->\\n                <div class="card-block text-xs-center">\\n                    <!--Title-->\\n                    <a href="\', escape=False)\nresponse.write(URL(\'forum\', \'index\'))\nresponse.write(\'"><h4 class="card-title">\', escape=False)\nresponse.write(T("Compartir criterios"))\nresponse.write(\'</h4></a>\\n                    <hr>\\n                    <!--Text-->\\n                    <p class="card-text">\', escape=False)\nresponse.write(T("Foro debate, para compartir criterios y opiniones sobre t\xc3\xa9maticas variadas"))\nresponse.write(\'</p>\\n                </div>\\n                <!--/.Card content-->\\n            </div>\\n        </div>\\n    </div>\\n\', escape=False)\nresponse.write(\'\\n        </div>\\n    </section>\\n\\n    <section id="about" class="full-height">\\n        <div class="container-fluid">\\n            \', escape=False)\nresponse.write(\'\\n    <div class="row">\\n        <div class="col-md-6 col-md-offset-1">\\n            <h2 class="h2-responsive wow fadeInDown">\', escape=False)\nresponse.write(T("Acerca de nosotros"))\nresponse.write(\'</h2>\\n        </div>\\n    </div>\\n\\n    <div class="row">\\n        <div class="col-md-3 col-md-offset-1">\\n            <article class="wow fadeInDown" data-wow-delay="0.2s">\\n                <h4 class="h4-responsive">\', escape=False)\nresponse.write(T("\xc2\xbfQuienes somos?"))\nresponse.write(\'</h4>\\n                <p>\', escape=False)\nresponse.write(T("Somos un equipo multidisciplinario de especialistas forestales en Cuba, entre sus miembros contamos con profesores de la ense\xc3\xb1anza forestal de la Universidad de Pinar del R\xc3\xado (UPR), as\xc3\xad como de las Facultades donde se estudia la carrera forestal de las Universidades de Granma y Guant\xc3\xa1namo, del Instituto de Investigaciones Agroforestales (INAF) del Ministerio de la Agricultura (MINAG), el Instituto de Ecolog\xc3\xada y Sistem\xc3\xa1tica (IES), el Cuerpo de Guardabosques (CGB), el Centro Nacional de \xc3\x81reas Protegidas (CENAP), la Empresa Nacional para la Protecci\xc3\xb3n de la Flora y la Fauna (ENPPF), as\xc3\xad como el Ministerio de Ciencia, Tecnolog\xc3\xada y Medio Ambiente (CITMA)"))\nresponse.write(\'.</p>\\n            </article>\\n        </div>\\n        <div class="col-md-3">\\n            <article class="wow fadeInDown" data-wow-delay="0.2s">\\n                <h4 class="h4-responsive">\', escape=False)\nresponse.write(T("\xc2\xbfQu\xc3\xa9 hacemos?"))\nresponse.write(\'</h4>\\n                <p>\', escape=False)\nresponse.write(T("Recopilamos toda la informaci\xc3\xb3n de la rama forestal que generamos, poseemos o que gestionamos en el mundo y la ponemos a disposici\xc3\xb3n de todos a trav\xc3\xa9s de la Comunidad Virtual de Recursos Forestales para contribuir a la difusi\xc3\xb3n del acervo de conocimientos de todas las instituciones dedicadas a estudiar, manejar, proteger y aprovechar los recursos forestales en la regi\xc3\xb3n de Centro Am\xc3\xa9rica y el Caribe. Por lo que la CVRF no se responsabiliza con la veracidad de los documentos subidos, lo cual corresponde a los consejos editoriales, comit\xc3\xa9s doctorales y otras instituciones encargadas de la publicaci\xc3\xb3n oficial de estos documentos."))\nresponse.write(\'</p>\\n            </article>\\n        </div>\\n        <div class="col-md-3">\\n            <article class="wow fadeInDown" data-wow-delay="0.2s">\\n                <h4 class="h4-responsive">\', escape=False)\nresponse.write(T("\xc2\xbfQu\xc3\xa9 es la Comunidad Virtual de Recursos Forestales?"))\nresponse.write(\'</h4>\\n                <p>\', escape=False)\nresponse.write(T(\'La Comunidad Virtual de Recursos Forestales es el conjunto de informaciones en todas sus diversas formas: textos, publicaciones peri\xc3\xb3dicas o no, tesis (de pregrado, maestr\xc3\xada o doctorado), leyes, regulaciones, manuales, folletos, informes, actas de eventos internacionales, multimedias o cualquier otro documento vinculado al sector forestal, que tiene como objetivo divulgar la informaci\xc3\xb3n forestal entre todos los actores del sector con el empleo de un sistema de herramientas inform\xc3\xa1ticas que favorezca la disponibilidad de esta informaci\xc3\xb3n para mejorar el monitoreo del manejo del bosque, su protecci\xc3\xb3n, y el aprovechamiento forestal a lo largo del pa\xc3\xads y para toda Centro Am\xc3\xa9rica y el Caribe. Esta soportado sobre el Proyecto FAO-FLEGT "Compartir informaci\xc3\xb3n para el fortalecimiento del conocimiento sobre el sector forestal cubano entre todos los actores participantes".\'))\nresponse.write(\'</p>\\n            </article>\\n        </div>\\n    </div>\\n\', escape=False)\nresponse.write(\'\\n        </div>\\n    </section>\\n\\n    <section id="counter">\\n        <div class="container-fluid">\\n            \', escape=False)\nresponse.write(\'\\n     <!--Counter-->\\n    <nav class="navbar navbar-counter">\\n        <div class="container">\\n            <div class="row">\\n                <div class="col-md-4">\\n                    <ul>\\n                        <li><h1 class="wow fadeInUp" data-wow-delay="0.2s"><ico class="glyphicon glyphicon-book"></ico>\', escape=False)\nresponse.write(T(\'Recursos\'))\nresponse.write(\'</h1></li>\\n                        <li><h2 class="wow fadeInUp" data-wow-delay="0.3s" id="resources">0</h2></li>\\n                    </ul>\\n                </div>\\n                <div class="col-md-4">\\n                    <ul>\\n                        <li><h1 class="wow fadeInUp" data-wow-delay="0.2s">\', escape=False)\nresponse.write(CAT(XML(\'<ico class="glyphicon glyphicon-user"></ico>\'), \' \', T(\'Usuarios\'))\nresponse.write(\'</h1></li>\\n                        <li><h2 class="wow fadeInUp" data-wow-delay="0.3s" id="users">0</h2></li>\\n                    </ul>\\n                </div>\\n                <div class="col-md-4">\\n                    <ul>\\n                        <li><h1 class="wow fadeInUp" data-wow-delay="0.2s"><ico class="glyphicon glyphicon-download"></ico>\', escape=False)\nresponse.write(T(\'Descargas\'))\nresponse.write(\'</h1></li>\\n                        <li><h2 class="wow fadeInUp" data-wow-delay="0.3s" id="downloads">0</h2></li>\\n                    </ul>\\n                </div>\\n            </div>\\n        </div>\\n    </nav>\\n    <!--/.Counter-->\\n\', escape=False)\nresponse.write(\'\\n        </div>\\n    </section>\\n\\n    <section id="information">\\n        <div class="container-fluid">\\n            \', escape=False)\nresponse.write(\'\\n\\n    <div class="row">\\n        <div class="col-md-4">\\n            <article>\\n                <h3 class="h3-responsive wow fadeInUp" data-wow-delay="0.1s">\', escape=False)\nresponse.write(T("Contact us"))\nresponse.write(\'</h3>\\n                <ul class="text-xs-center">\\n                    <li class="wow fadeInUp" data-wow-delay="0.2s">\\n                        <h3>\', escape=False)\nresponse.write(T(\'Comunidad Virtual de Recursos Forestales\'))\nresponse.write(\'</h3>\\n                    </li>\\n                    <li class="wow fadeInUp" data-wow-delay="0.3s">\\n                        <h4><ico class="glyphicon glyphicon-map-marker"></ico>\', escape=False)\nresponse.write(T(\'Edificio docente cuarta planta, Universidad Pinar del R\xc3\xado, "Hermanos Sa\xc3\xadz Montes de Oca", Pinar del R\xc3\xado, Cuba\'))\nresponse.write(\'</h4>\\n                    </li>\\n\\n                    <li class="wow fadeInUp" data-wow-delay="0.4s">\\n                        <p><ico class="glyphicon glyphicon-phone"></ico> + 01 234 567 89</p>\\n                    </li>\\n\\n                    <li class="wow fadeInUp" data-wow-delay="0.5s">\\n                        <p><ico class="glyphicon glyphicon-qrcode"></ico> 8989-8989-4454-1234</p>\\n                    </li>\\n\\n                    <li class="wow fadeInUp" data-wow-delay="0.6s"><ico class="glyphicon glyphicon-envelope"></ico>\\n                        <a href="mailto:cvforestal.upr.edu.cu">cvforestal@upr.edu.cu</a>\\n                    </li>\\n                </ul>\\n            </article>\\n        </div>\\n        <div class="col-md-4">\\n            <article class="wow fadeInUp" data-wow-delay="0.3s">\\n                <h3 class="h3-responsive">\', escape=False)\nresponse.write(T("Privacidad"))\nresponse.write(\'</h3>\\n                <ul class="nav">\\n                    <li>\', escape=False)\nresponse.write(A(T(\'T\xc3\xa9rminos y condiciones\')))\nresponse.write(\'</li>\\n                    <li>\', escape=False)\nresponse.write(A(T(\'Grupo de Trabajo\')))\nresponse.write(\'</li>\\n                    <li>\', escape=False)\nresponse.write(A(T(\'Grupo de desarrollo\')))\nresponse.write(\'</li>\\n                </ul>\\n            </article>\\n        </div>\\n        <div class="col-md-2">\\n            <article class="wow fadeInUp" data-wow-delay="0.4s">\\n                <h3 class="h3-responsive">\', escape=False)\nresponse.write(T("Financiado"))\nresponse.write(\'</h3>\\n                <ul>\\n                    <li><h2>\', escape=False)\nresponse.write(T(\'Universidad de Pinar del R\xc3\xado\'))\nresponse.write(\'</h2></li>\\n                    <li><h2>\', escape=False)\nresponse.write(T(\'Fao\'))\nresponse.write(\'</h2></li>\\n                    <li><h2>\', escape=False)\nresponse.write(T(\'Fleg\'))\nresponse.write(\'</h2></li>\\n                </ul>\\n            </article>\\n        </div>\\n    </div>\\n\', escape=False)\nresponse.write(\'\\n        </div>\\n    </section>\\n    <!--/ Main container-->\\n\\n    <!--Footer-->\\n    <footer class="page-footer">\\n        <!--Copyright-->\\n        <div class="footer-copyright">\\n            <div class="container-fluid">\\n                <div class="copyright pull-left">\\n                  <h3>\', escape=False)\nresponse.write(T(\'Copyright\'))\nresponse.write(\' &#169; \', escape=False)\nresponse.write(T(\'Todos los Derechos Reservados\'))\nresponse.write(\' 2014-\', escape=False)\nresponse.write(request.now.year)\nresponse.write(\'</h3>\\n                </div>\\n                  <div id="poweredBy" class="pull-right">\\n                    \', escape=False)\nresponse.write(T(\'Powered by\'))\nresponse.write(\'\\n                    <a href="http://web2py.com/">Web2py</a>\\n                  </div>\\n            </div>\\n        </div>\\n        <!--/.Copyright-->\\n    </footer>\\n    <!--/.Footer-->\\n\\n    <!-- The javascript =============================== -->\\n    <script src="\', escape=False)\nresponse.write(URL(\'static\',\'js/jquery-3.1.1.min.js\'))\nresponse.write(\'"></script>\\n    <script src="\', escape=False)\nresponse.write(URL(\'static\',\'js/bootstrap.min.js\'))\nresponse.write(\'"></script>\\n    <script src="\', escape=False)\nresponse.write(URL(\'static\',\'js/mdb.min.js\'))\nresponse.write(\'"></script>\\n    \', escape=False)\nresponse.write(\'\\n    \', escape=False)\nresponse.write(\'\\n    <script>\\n        $(function(){\\n            // obtiene informaci\\xc3\\xb3n en formato JSON desde el servidor\\n                $.getJSON("\', escape=False)\nresponse.write(URL(\'resource\', \'get_informations\', hmac_key=KEY))\nresponse.write(\'", {}, function(json) {\\n                    if (json.resources){\\n                        $("#resources").text(json.resources);\\n                    }\\n                    if (json.users){\\n                        $("#users").text(json.users);\\n                    }\\n                    if (json.downloads){\\n                        $("#downloads").text(json.downloads);\\n                    }\\n                });\\n            /*Funci\\xc3\\xb3n que permite actualizar la cantidad recursos, descargas y usuarios totales de la aplicaci\\xc3\\xb3n cada 5 segundos*/\\n            setInterval(function(){\\n                $.getJSON("\', escape=False)\nresponse.write(URL(\'resource\', \'get_informations\', hmac_key=KEY))\nresponse.write(\'", {}, function(json) {\\n                    if (json.resources){\\n                        $("#resources").text(json.resources);\\n                    }\\n                    if (json.users){\\n                        $("#users").text(json.users);\\n                    }\\n                    if (json.downloads){\\n                        $("#downloads").text(json.downloads);\\n                    }\\n                });\\n            }, 5000);\\n        });\\n    </script>\\n\', escape=False)\nresponse.write(\'\\n    <script src="\', escape=False)\nresponse.write(URL(\'static\',\'js/share.js\',vars=dict(static=URL(\'static\',\'img\'))))\nresponse.write(\'"></script>\\n    <!-- Animations init-->\\n    <script>\\n        new WOW().init();\\n\\n        $(function(){\\n            $(\\\'ul > li > a\\\').click(function(event) {\\n\\n                if (location.pathname.replace(/^\\\\//,\\\'\\\') == this.pathname.replace(/^\\\\//,\\\'\\\') && location.hostname == this.hostname) {\\n                    var $target = $(this.hash);\\n                    $target = $target.length && $target || $(\\\'[name=\\\' + this.hash.slice(1) +\\\']\\\');\\n\\n                    if ($target.length) {\\n                        var targetOffset = $target.offset().top;\\n                        $(\\\'html,body\\\').animate({scrollTop: targetOffset}, 1500);\\n                        event.preventDefault();\\n                    }\\n                }\\n            });\\n        });\\n    </script>\\n  </body>\\n</html>\\n\', escape=False)'
p7
sS'snapshot'
p8
(dp9
S'exception'
p10
(dp11
S'__getslice__'
p12
S"<method-wrapper '__getslice__' of exceptions.SyntaxError object>"
p13
sS'text'
p14
S'\'response.write(\\\'</h1></li>\\\\n                    ...hicon glyphicon-download"></ico>\\\', escape=False)\\n\''
p15
sS'__str__'
p16
S"<method-wrapper '__str__' of exceptions.SyntaxError object>"
p17
sS'__reduce__'
p18
S'<built-in method __reduce__ of exceptions.SyntaxError object>'
p19
sS'__dict__'
p20
S'{}'
p21
sS'__sizeof__'
p22
S'<built-in method __sizeof__ of exceptions.SyntaxError object>'
p23
sS'__init__'
p24
S"<method-wrapper '__init__' of exceptions.SyntaxError object>"
p25
sS'__setattr__'
p26
S"<method-wrapper '__setattr__' of exceptions.SyntaxError object>"
p27
sS'__reduce_ex__'
p28
S'<built-in method __reduce_ex__ of exceptions.SyntaxError object>'
p29
sS'__new__'
p30
S'<built-in method __new__ of type object>'
p31
sS'__format__'
p32
S'<built-in method __format__ of exceptions.SyntaxError object>'
p33
sS'__class__'
p34
S"<type 'exceptions.SyntaxError'>"
p35
sS'filename'
p36
S"'/opt/python/web2py/web2py/applications/cvrf/views/default/index.html'"
p37
sS'lineno'
p38
S'122'
p39
sS'msg'
p40
S"'invalid syntax'"
p41
sS'__doc__'
p42
S"'Invalid syntax.'"
p43
sS'__getitem__'
p44
S"<method-wrapper '__getitem__' of exceptions.SyntaxError object>"
p45
sS'__setstate__'
p46
S'<built-in method __setstate__ of exceptions.SyntaxError object>'
p47
sS'__getattribute__'
p48
S"<method-wrapper '__getattribute__' of exceptions.SyntaxError object>"
p49
sS'print_file_and_line'
p50
S'None'
p51
sS'args'
p52
S'(\'invalid syntax\', (\'/opt/python/web2py/web2py/applications/cvrf/views/default/index.html\', 122, 8, \'response.write(\\\'</h1></li>\\\\n                    ...hicon glyphicon-download"></ico>\\\', escape=False)\\n\'))'
p53
sS'__subclasshook__'
p54
S'<built-in method __subclasshook__ of type object>'
p55
sS'offset'
p56
S'8'
sS'__unicode__'
p57
S'<built-in method __unicode__ of exceptions.SyntaxError object>'
p58
sS'__delattr__'
p59
S"<method-wrapper '__delattr__' of exceptions.SyntaxError object>"
p60
sS'__repr__'
p61
S"<method-wrapper '__repr__' of exceptions.SyntaxError object>"
p62
sS'__hash__'
p63
S"<method-wrapper '__hash__' of exceptions.SyntaxError object>"
p64
ssS'evalue'
p65
S'invalid syntax (index.html, line 122)'
p66
sS'request'
p67
cgluon.html
XML_unpickle
p68
(S's;]\x00\x00<div><table><tr><td style="font-weight:bold;vertical-align:top;">ajax</td><td style="vertical-align:top;">:</td><td><div>False</div></td></tr><tr><td style="font-weight:bold;vertical-align:top;">application</td><td style="vertical-align:top;">:</td><td><div>cvrf</div></td></tr><tr><td style="font-weight:bold;vertical-align:top;">args</td><td style="vertical-align:top;">:</td><td><div><table></table></div></td></tr><tr><td style="font-weight:bold;vertical-align:top;">cid</td><td style="vertical-align:top;">:</td><td><div>None</div></td></tr><tr><td style="font-weight:bold;vertical-align:top;">client</td><td style="vertical-align:top;">:</td><td><div>127.0.0.1</div></td></tr><tr><td style="font-weight:bold;vertical-align:top;">controller</td><td style="vertical-align:top;">:</td><td><div>default</div></td></tr><tr><td style="font-weight:bold;vertical-align:top;">cookies</td><td style="vertical-align:top;">:</td><td><div><table><tr><td style="font-weight:bold;vertical-align:top;">session_id_admin</td><td style="vertical-align:top;">:</td><td><div>127.0.0.1-da590fc7-848f-4de7-a566-f85537d11b6e<table><tr><td style="font-weight:bold;vertical-align:top;">comment</td><td style="vertical-align:top;">:</td><td><div></div></td></tr><tr><td style="font-weight:bold;vertical-align:top;">domain</td><td style="vertical-align:top;">:</td><td><div></div></td></tr><tr><td style="font-weight:bold;vertical-align:top;">expires</td><td style="vertical-align:top;">:</td><td><div></div></td></tr><tr><td style="font-weight:bold;vertical-align:top;">httponly</td><td style="vertical-align:top;">:</td><td><div></div></td></tr><tr><td style="font-weight:bold;vertical-align:top;">max-age</td><td style="vertical-align:top;">:</td><td><div></div></td></tr><tr><td style="font-weight:bold;vertical-align:top;">path</td><td style="vertical-align:top;">:</td><td><div></div></td></tr><tr><td style="font-weight:bold;vertical-align:top;">secure</td><td style="vertical-align:top;">:</td><td><div></div></td></tr><tr><td style="font-weight:bold;vertical-align:top;">version</td><td style="vertical-align:top;">:</td><td><div></div></td></tr></table></div></td></tr><tr><td style="font-weight:bold;vertical-align:top;">session_id_cvrf</td><td style="vertical-align:top;">:</td><td><div>19:a866d1ba-eff0-45de-b863-39a661fa35eb<table><tr><td style="font-weight:bold;vertical-align:top;">comment</td><td style="vertical-align:top;">:</td><td><div></div></td></tr><tr><td style="font-weight:bold;vertical-align:top;">domain</td><td style="vertical-align:top;">:</td><td><div></div></td></tr><tr><td style="font-weight:bold;vertical-align:top;">expires</td><td style="vertical-align:top;">:</td><td><div></div></td></tr><tr><td style="font-weight:bold;vertical-align:top;">httponly</td><td style="vertical-align:top;">:</td><td><div></div></td></tr><tr><td style="font-weight:bold;vertical-align:top;">max-age</td><td style="vertical-align:top;">:</td><td><div></div></td></tr><tr><td style="font-weight:bold;vertical-align:top;">path</td><td style="vertical-align:top;">:</td><td><div></div></td></tr><tr><td style="font-weight:bold;vertical-align:top;">secure</td><td style="vertical-align:top;">:</td><td><div></div></td></tr><tr><td style="font-weight:bold;vertical-align:top;">version</td><td style="vertical-align:top;">:</td><td><div></div></td></tr></table></div></td></tr><tr><td style="font-weight:bold;vertical-align:top;">session_id_welcome</td><td style="vertical-align:top;">:</td><td><div>127.0.0.1-3cd9c850-1543-463f-b678-7760d8c84c69<table><tr><td style="font-weight:bold;vertical-align:top;">comment</td><td style="vertical-align:top;">:</td><td><div></div></td></tr><tr><td style="font-weight:bold;vertical-align:top;">domain</td><td style="vertical-align:top;">:</td><td><div></div></td></tr><tr><td style="font-weight:bold;vertical-align:top;">expires</td><td style="vertical-align:top;">:</td><td><div></div></td></tr><tr><td style="font-weight:bold;vertical-align:top;">httponly</td><td style="vertical-align:top;">:</td><td><div></div></td></tr><tr><td style="font-weight:bold;vertical-align:top;">max-age</td><td style="vertical-align:top;">:</td><td><div></div></td></tr><tr><td style="font-weight:bold;vertical-align:top;">path</td><td style="vertical-align:top;">:</td><td><div></div></td></tr><tr><td style="font-weight:bold;vertical-align:top;">secure</td><td style="vertical-align:top;">:</td><td><div></div></td></tr><tr><td style="font-weight:bold;vertical-align:top;">version</td><td style="vertical-align:top;">:</td><td><div></div></td></tr></table></div></td></tr></table></div></td></tr><tr><td style="font-weight:bold;vertical-align:top;">env</td><td style="vertical-align:top;">:</td><td><div><table><tr><td style="font-weight:bold;vertical-align:top;">HTTP_ACCEPT</td><td style="vertical-align:top;">:</td><td><div>text/html,application/xhtml+xml,application/xml;q=0.9,image/webp,*/*;q=0.8</div></td></tr><tr><td style="font-weight:bold;vertical-align:top;">HTTP_ACCEPT_ENCODING</td><td style="vertical-align:top;">:</td><td><div>gzip, deflate, sdch, br</div></td></tr><tr><td style="font-weight:bold;vertical-align:top;">HTTP_ACCEPT_LANGUAGE</td><td style="vertical-align:top;">:</td><td><div>es-ES,es;q=0.8</div></td></tr><tr><td style="font-weight:bold;vertical-align:top;">HTTP_CACHE_CONTROL</td><td style="vertical-align:top;">:</td><td><div>max-age=0</div></td></tr><tr><td style="font-weight:bold;vertical-align:top;">HTTP_CONNECTION</td><td style="vertical-align:top;">:</td><td><div>keep-alive</div></td></tr><tr><td style="font-weight:bold;vertical-align:top;">HTTP_COOKIE</td><td style="vertical-align:top;">:</td><td><div>session_id_welcome=127.0.0.1-3cd9c850-1543-463f-b678-7760d8c84c69; session_id_admin=127.0.0.1-da590fc7-848f-4de7-a566-f85537d11b6e; session_id_cvrf=&quot;19:a866d1ba-eff0-45de-b863-39a661fa35eb&quot;</div></td></tr><tr><td style="font-weight:bold;vertical-align:top;">HTTP_HOST</td><td style="vertical-align:top;">:</td><td><div>127.0.0.1:8000</div></td></tr><tr><td style="font-weight:bold;vertical-align:top;">HTTP_REFERER</td><td style="vertical-align:top;">:</td><td><div>http://127.0.0.1:8000/cvrf/resource/search</div></td></tr><tr><td style="font-weight:bold;vertical-align:top;">HTTP_UPGRADE_INSECURE_REQUESTS</td><td style="vertical-align:top;">:</td><td><div>1</div></td></tr><tr><td style="font-weight:bold;vertical-align:top;">HTTP_USER_AGENT</td><td style="vertical-align:top;">:</td><td><div>Mozilla/5.0 (X11; Linux x86_64) AppleWebKit/537.36 (KHTML, like Gecko) Ubuntu Chromium/56.0.2924.76 Chrome/56.0.2924.76 Safari/537.36</div></td></tr><tr><td style="font-weight:bold;vertical-align:top;">PATH_INFO</td><td style="vertical-align:top;">:</td><td><div>/cvrf/default/index</div></td></tr><tr><td style="font-weight:bold;vertical-align:top;">QUERY_STRING</td><td style="vertical-align:top;">:</td><td><div></div></td></tr><tr><td style="font-weight:bold;vertical-align:top;">REMOTE_ADDR</td><td style="vertical-align:top;">:</td><td><div>127.0.0.1</div></td></tr><tr><td style="font-weight:bold;vertical-align:top;">REMOTE_PORT</td><td style="vertical-align:top;">:</td><td><div>54874</div></td></tr><tr><td style="font-weight:bold;vertical-align:top;">REQUEST_METHOD</td><td style="vertical-align:top;">:</td><td><div>GET</div></td></tr><tr><td style="font-weight:bold;vertical-align:top;">SCRIPT_NAME</td><td style="vertical-align:top;">:</td><td><div></div></td></tr><tr><td style="font-weight:bold;vertical-align:top;">SERVER_NAME</td><td style="vertical-align:top;">:</td><td><div>yasmany-tp500lab</div></td></tr><tr><td style="font-weight:bold;vertical-align:top;">SERVER_PORT</td><td style="vertical-align:top;">:</td><td><div>8000</div></td></tr><tr><td style="font-weight:bold;vertical-align:top;">SERVER_PROTOCOL</td><td style="vertical-align:top;">:</td><td><div>HTTP/1.1</div></td></tr><tr><td style="font-weight:bold;vertical-align:top;">SERVER_SOFTWARE</td><td style="vertical-align:top;">:</td><td><div>Rocket 1.2.6</div></td></tr><tr><td style="font-weight:bold;vertical-align:top;">app_folders</td><td style="vertical-align:top;">:</td><td><div>set([&#x27;/opt/python/web2py/web2py/applications/cvrf/&#x27;, &#x27;/opt/python/web2py/web2py/applications/admin/&#x27;, &#x27;/opt/python/web2py/web2py/applications/welcome/&#x27;])</div></td></tr><tr><td style="font-weight:bold;vertical-align:top;">applications_parent</td><td style="vertical-align:top;">:</td><td><div>/opt/python/web2py/web2py</div></td></tr><tr><td style="font-weight:bold;vertical-align:top;">cmd_args</td><td style="vertical-align:top;">:</td><td><div><table></table></div></td></tr><tr><td style="font-weight:bold;vertical-align:top;">cmd_options</td><td style="vertical-align:top;">:</td><td><div>&lt;Values at 0x7ff11b8d8e60: {&#x27;verbose&#x27;: False, &#x27;ip&#x27;: &#x27;127.0.0.1&#x27;, &#x27;debuglevel&#x27;: 30, &#x27;with_scheduler&#x27;: False, &#x27;shutdown_timeout&#x27;: 5, &#x27;taskbar&#x27;: False, &#x27;with_coverage&#x27;: False, &#x27;pid_filename&#x27;: &#x27;httpserver.pid&#x27;, &#x27;maxthreads&#x27;: None, &#x27;softcron&#x27;: False, &#x27;server_name&#x27;: &#x27;yasmany-tp500lab&#x27;, &#x27;bpython&#x27;: False, &#x27;nogui&#x27;: False, &#x27;port&#x27;: 8000, &#x27;print_errors&#x27;: False, &#x27;extcron&#x27;: False, &#x27;runcron&#x27;: False, &#x27;run_system_tests&#x27;: False, &#x27;test&#x27;: None, &#x27;folder&#x27;: &#x27;/opt/python/web2py/web2py&#x27;, &#x27;config&#x27;: &#x27;&#x27;, &#x27;minthreads&#x27;: None, &#x27;shell&#x27;: None, &#x27;run&#x27;: &#x27;&#x27;, &#x27;log_filename&#x27;: &#x27;httpserver.log&#x27;, &#x27;profiler_dir&#x27;: None, &#x27;args&#x27;: [&#x27;&#x27;], &#x27;socket_timeout&#x27;: 5, &#x27;ssl_ca_certificate&#x27;: None, &#x27;scheduler&#x27;: None, &#x27;interfaces&#x27;: None, &#x27;ssl_private_key&#x27;: &#x27;&#x27;, &#x27;gae&#x27;: None, &#x27;password&#x27;: &#x27;******&#x27;, &#x27;request_queue_size&#x27;: 5, &#x27;ssl_certificate&#x27;: &#x27;&#x27;, &#x27;cronjob&#x27;: False, &#x27;numthreads&#x27;: None, &#x27;quiet&#x27;: False, &#x27;import_models&#x27;: False, &#x27;timeout&#x27;: 10, &#x27;plain&#x27;: False, &#x27;nobanner&#x27;: False}&gt;</div></td></tr><tr><td style="font-weight:bold;vertical-align:top;">db_sessions</td><td style="vertical-align:top;">:</td><td><div>set([&#x27;cvrf&#x27;])</div></td></tr><tr><td style="font-weight:bold;vertical-align:top;">debugging</td><td style="vertical-align:top;">:</td><td><div>True</div></td></tr><tr><td style="font-weight:bold;vertical-align:top;">gluon_parent</td><td style="vertical-align:top;">:</td><td><div>/opt/python/web2py/web2py</div></td></tr><tr><td style="font-weight:bold;vertical-align:top;">http_accept</td><td style="vertical-align:top;">:</td><td><div>text/html,application/xhtml+xml,application/xml;q=0.9,image/webp,*/*;q=0.8</div></td></tr><tr><td style="font-weight:bold;vertical-align:top;">http_accept_encoding</td><td style="vertical-align:top;">:</td><td><div>gzip, deflate, sdch, br</div></td></tr><tr><td style="font-weight:bold;vertical-align:top;">http_accept_language</td><td style="vertical-align:top;">:</td><td><div>es-ES,es;q=0.8</div></td></tr><tr><td style="font-weight:bold;vertical-align:top;">http_cache_control</td><td style="vertical-align:top;">:</td><td><div>max-age=0</div></td></tr><tr><td style="font-weight:bold;vertical-align:top;">http_connection</td><td style="vertical-align:top;">:</td><td><div>keep-alive</div></td></tr><tr><td style="font-weight:bold;vertical-align:top;">http_cookie</td><td style="vertical-align:top;">:</td><td><div>session_id_welcome=127.0.0.1-3cd9c850-1543-463f-b678-7760d8c84c69; session_id_admin=127.0.0.1-da590fc7-848f-4de7-a566-f85537d11b6e; session_id_cvrf=&quot;19:a866d1ba-eff0-45de-b863-39a661fa35eb&quot;</div></td></tr><tr><td style="font-weight:bold;vertical-align:top;">http_host</td><td style="vertical-align:top;">:</td><td><div>127.0.0.1:8000</div></td></tr><tr><td style="font-weight:bold;vertical-align:top;">http_referer</td><td style="vertical-align:top;">:</td><td><div>http://127.0.0.1:8000/cvrf/resource/search</div></td></tr><tr><td style="font-weight:bold;vertical-align:top;">http_upgrade_insecure_requests</td><td style="vertical-align:top;">:</td><td><div>1</div></td></tr><tr><td style="font-weight:bold;vertical-align:top;">http_user_agent</td><td style="vertical-align:top;">:</td><td><div>Mozilla/5.0 (X11; Linux x86_64) AppleWebKit/537.36 (KHTML, like Gecko) Ubuntu Chromium/56.0.2924.76 Chrome/56.0.2924.76 Safari/537.36</div></td></tr><tr><td style="font-weight:bold;vertical-align:top;">is_jython</td><td style="vertical-align:top;">:</td><td><div>False</div></td></tr><tr><td style="font-weight:bold;vertical-align:top;">is_pypy</td><td style="vertical-align:top;">:</td><td><div>False</div></td></tr><tr><td style="font-weight:bold;vertical-align:top;">is_source</td><td style="vertical-align:top;">:</td><td><div>True</div></td></tr><tr><td style="font-weight:bold;vertical-align:top;">local_hosts</td><td style="vertical-align:top;">:</td><td><div><table><tr><td><div>yasmany-tp500lab</div></td></tr><tr><td><div>127.0.1.1</div></td></tr><tr><td><div>::ffff:127.0.0.1</div></td></tr><tr><td><div>::1</div></td></tr><tr><td><div>yasmany-TP500LAB</div></td></tr><tr><td><div>127.0.0.1</div></td></tr></table></div></td></tr><tr><td style="font-weight:bold;vertical-align:top;">path_info</td><td style="vertical-align:top;">:</td><td><div>/cvrf/default/index</div></td></tr><tr><td style="font-weight:bold;vertical-align:top;">query_string</td><td style="vertical-align:top;">:</td><td><div></div></td></tr><tr><td style="font-weight:bold;vertical-align:top;">remote_addr</td><td style="vertical-align:top;">:</td><td><div>127.0.0.1</div></td></tr><tr><td style="font-weight:bold;vertical-align:top;">remote_port</td><td style="vertical-align:top;">:</td><td><div>54874</div></td></tr><tr><td style="font-weight:bold;vertical-align:top;">request_method</td><td style="vertical-align:top;">:</td><td><div>GET</div></td></tr><tr><td style="font-weight:bold;vertical-align:top;">request_uri</td><td style="vertical-align:top;">:</td><td><div>/cvrf/default/index</div></td></tr><tr><td style="font-weight:bold;vertical-align:top;">script_name</td><td style="vertical-align:top;">:</td><td><div></div></td></tr><tr><td style="font-weight:bold;vertical-align:top;">server_name</td><td style="vertical-align:top;">:</td><td><div>yasmany-tp500lab</div></td></tr><tr><td style="font-weight:bold;vertical-align:top;">server_port</td><td style="vertical-align:top;">:</td><td><div>8000</div></td></tr><tr><td style="font-weight:bold;vertical-align:top;">server_protocol</td><td style="vertical-align:top;">:</td><td><div>HTTP/1.1</div></td></tr><tr><td style="font-weight:bold;vertical-align:top;">server_software</td><td style="vertical-align:top;">:</td><td><div>Rocket 1.2.6</div></td></tr><tr><td style="font-weight:bold;vertical-align:top;">web2py_path</td><td style="vertical-align:top;">:</td><td><div>/opt/python/web2py/web2py</div></td></tr><tr><td style="font-weight:bold;vertical-align:top;">web2py_version</td><td style="vertical-align:top;">:</td><td><div>2.14.6-stable+timestamp.2016.05.10.00.21.47</div></td></tr><tr><td style="font-weight:bold;vertical-align:top;">wsgi.errors</td><td style="vertical-align:top;">:</td><td><div>&lt;open file &#x27;&lt;stderr&gt;&#x27;, mode &#x27;w&#x27; at 0x7ff122b8e1e0&gt;</div></td></tr><tr><td style="font-weight:bold;vertical-align:top;">wsgi.file_wrapper</td><td style="vertical-align:top;">:</td><td><div>&lt;class wsgiref.util.FileWrapper at 0x7ff11b969f58&gt;</div></td></tr><tr><td style="font-weight:bold;vertical-align:top;">wsgi.input</td><td style="vertical-align:top;">:</td><td><div>&lt;socket._fileobject object at 0x7ff0c8aeabd0&gt;</div></td></tr><tr><td style="font-weight:bold;vertical-align:top;">wsgi.multiprocess</td><td style="vertical-align:top;">:</td><td><div>False</div></td></tr><tr><td style="font-weight:bold;vertical-align:top;">wsgi.multithread</td><td style="vertical-align:top;">:</td><td><div>True</div></td></tr><tr><td style="font-weight:bold;vertical-align:top;">wsgi.run_once</td><td style="vertical-align:top;">:</td><td><div>False</div></td></tr><tr><td style="font-weight:bold;vertical-align:top;">wsgi.url_scheme</td><td style="vertical-align:top;">:</td><td><div>http</div></td></tr><tr><td style="font-weight:bold;vertical-align:top;">wsgi.version</td><td style="vertical-align:top;">:</td><td><div><table><tr><td><div>1</div></td></tr><tr><td><div>0</div></td></tr></table></div></td></tr><tr><td style="font-weight:bold;vertical-align:top;">wsgi_errors</td><td style="vertical-align:top;">:</td><td><div>&lt;open file &#x27;&lt;stderr&gt;&#x27;, mode &#x27;w&#x27; at 0x7ff122b8e1e0&gt;</div></td></tr><tr><td style="font-weight:bold;vertical-align:top;">wsgi_file_wrapper</td><td style="vertical-align:top;">:</td><td><div>&lt;class wsgiref.util.FileWrapper at 0x7ff11b969f58&gt;</div></td></tr><tr><td style="font-weight:bold;vertical-align:top;">wsgi_input</td><td style="vertical-align:top;">:</td><td><div>&lt;socket._fileobject object at 0x7ff0c8aeabd0&gt;</div></td></tr><tr><td style="font-weight:bold;vertical-align:top;">wsgi_multiprocess</td><td style="vertical-align:top;">:</td><td><div>False</div></td></tr><tr><td style="font-weight:bold;vertical-align:top;">wsgi_multithread</td><td style="vertical-align:top;">:</td><td><div>True</div></td></tr><tr><td style="font-weight:bold;vertical-align:top;">wsgi_run_once</td><td style="vertical-align:top;">:</td><td><div>False</div></td></tr><tr><td style="font-weight:bold;vertical-align:top;">wsgi_url_scheme</td><td style="vertical-align:top;">:</td><td><div>http</div></td></tr><tr><td style="font-weight:bold;vertical-align:top;">wsgi_version</td><td style="vertical-align:top;">:</td><td><div><table><tr><td><div>1</div></td></tr><tr><td><div>0</div></td></tr></table></div></td></tr></table></div></td></tr><tr><td style="font-weight:bold;vertical-align:top;">extension</td><td style="vertical-align:top;">:</td><td><div>html</div></td></tr><tr><td style="font-weight:bold;vertical-align:top;">folder</td><td style="vertical-align:top;">:</td><td><div>/opt/python/web2py/web2py/applications/cvrf/</div></td></tr><tr><td style="font-weight:bold;vertical-align:top;">function</td><td style="vertical-align:top;">:</td><td><div>index</div></td></tr><tr><td style="font-weight:bold;vertical-align:top;">global_settings</td><td style="vertical-align:top;">:</td><td><div><table><tr><td style="font-weight:bold;vertical-align:top;">app_folders</td><td style="vertical-align:top;">:</td><td><div>set([&#x27;/opt/python/web2py/web2py/applications/cvrf/&#x27;, &#x27;/opt/python/web2py/web2py/applications/admin/&#x27;, &#x27;/opt/python/web2py/web2py/applications/welcome/&#x27;])</div></td></tr><tr><td style="font-weight:bold;vertical-align:top;">applications_parent</td><td style="vertical-align:top;">:</td><td><div>/opt/python/web2py/web2py</div></td></tr><tr><td style="font-weight:bold;vertical-align:top;">cmd_args</td><td style="vertical-align:top;">:</td><td><div><table></table></div></td></tr><tr><td style="font-weight:bold;vertical-align:top;">cmd_options</td><td style="vertical-align:top;">:</td><td><div>&lt;Values at 0x7ff11b8d8e60: {&#x27;verbose&#x27;: False, &#x27;ip&#x27;: &#x27;127.0.0.1&#x27;, &#x27;debuglevel&#x27;: 30, &#x27;with_scheduler&#x27;: False, &#x27;shutdown_timeout&#x27;: 5, &#x27;taskbar&#x27;: False, &#x27;with_coverage&#x27;: False, &#x27;pid_filename&#x27;: &#x27;httpserver.pid&#x27;, &#x27;maxthreads&#x27;: None, &#x27;softcron&#x27;: False, &#x27;server_name&#x27;: &#x27;yasmany-tp500lab&#x27;, &#x27;bpython&#x27;: False, &#x27;nogui&#x27;: False, &#x27;port&#x27;: 8000, &#x27;print_errors&#x27;: False, &#x27;extcron&#x27;: False, &#x27;runcron&#x27;: False, &#x27;run_system_tests&#x27;: False, &#x27;test&#x27;: None, &#x27;folder&#x27;: &#x27;/opt/python/web2py/web2py&#x27;, &#x27;config&#x27;: &#x27;&#x27;, &#x27;minthreads&#x27;: None, &#x27;shell&#x27;: None, &#x27;run&#x27;: &#x27;&#x27;, &#x27;log_filename&#x27;: &#x27;httpserver.log&#x27;, &#x27;profiler_dir&#x27;: None, &#x27;args&#x27;: [&#x27;&#x27;], &#x27;socket_timeout&#x27;: 5, &#x27;ssl_ca_certificate&#x27;: None, &#x27;scheduler&#x27;: None, &#x27;interfaces&#x27;: None, &#x27;ssl_private_key&#x27;: &#x27;&#x27;, &#x27;gae&#x27;: None, &#x27;password&#x27;: &#x27;******&#x27;, &#x27;request_queue_size&#x27;: 5, &#x27;ssl_certificate&#x27;: &#x27;&#x27;, &#x27;cronjob&#x27;: False, &#x27;numthreads&#x27;: None, &#x27;quiet&#x27;: False, &#x27;import_models&#x27;: False, &#x27;timeout&#x27;: 10, &#x27;plain&#x27;: False, &#x27;nobanner&#x27;: False}&gt;</div></td></tr><tr><td style="font-weight:bold;vertical-align:top;">db_sessions</td><td style="vertical-align:top;">:</td><td><div>set([&#x27;cvrf&#x27;])</div></td></tr><tr><td style="font-weight:bold;vertical-align:top;">debugging</td><td style="vertical-align:top;">:</td><td><div>True</div></td></tr><tr><td style="font-weight:bold;vertical-align:top;">gluon_parent</td><td style="vertical-align:top;">:</td><td><div>/opt/python/web2py/web2py</div></td></tr><tr><td style="font-weight:bold;vertical-align:top;">is_jython</td><td style="vertical-align:top;">:</td><td><div>False</div></td></tr><tr><td style="font-weight:bold;vertical-align:top;">is_pypy</td><td style="vertical-align:top;">:</td><td><div>False</div></td></tr><tr><td style="font-weight:bold;vertical-align:top;">is_source</td><td style="vertical-align:top;">:</td><td><div>True</div></td></tr><tr><td style="font-weight:bold;vertical-align:top;">local_hosts</td><td style="vertical-align:top;">:</td><td><div><table><tr><td><div>yasmany-tp500lab</div></td></tr><tr><td><div>127.0.1.1</div></td></tr><tr><td><div>::ffff:127.0.0.1</div></td></tr><tr><td><div>::1</div></td></tr><tr><td><div>yasmany-TP500LAB</div></td></tr><tr><td><div>127.0.0.1</div></td></tr></table></div></td></tr><tr><td style="font-weight:bold;vertical-align:top;">web2py_version</td><td style="vertical-align:top;">:</td><td><div>2.14.6-stable+timestamp.2016.05.10.00.21.47</div></td></tr></table></div></td></tr><tr><td style="font-weight:bold;vertical-align:top;">is_https</td><td style="vertical-align:top;">:</td><td><div>False</div></td></tr><tr><td style="font-weight:bold;vertical-align:top;">is_local</td><td style="vertical-align:top;">:</td><td><div>True</div></td></tr><tr><td style="font-weight:bold;vertical-align:top;">is_restful</td><td style="vertical-align:top;">:</td><td><div>False</div></td></tr><tr><td style="font-weight:bold;vertical-align:top;">is_scheduler</td><td style="vertical-align:top;">:</td><td><div>False</div></td></tr><tr><td style="font-weight:bold;vertical-align:top;">is_shell</td><td style="vertical-align:top;">:</td><td><div>False</div></td></tr><tr><td style="font-weight:bold;vertical-align:top;">now</td><td style="vertical-align:top;">:</td><td><div>datetime.datetime(2017, 3, 21, 12, 50, 39, 405467)</div></td></tr><tr><td style="font-weight:bold;vertical-align:top;">raw_args</td><td style="vertical-align:top;">:</td><td><div></div></td></tr><tr><td style="font-weight:bold;vertical-align:top;">raw_extension</td><td style="vertical-align:top;">:</td><td><div>None</div></td></tr><tr><td style="font-weight:bold;vertical-align:top;">url</td><td style="vertical-align:top;">:</td><td><div>/cvrf/default/index</div></td></tr><tr><td style="font-weight:bold;vertical-align:top;">utcnow</td><td style="vertical-align:top;">:</td><td><div>datetime.datetime(2017, 3, 21, 16, 50, 39, 405496)</div></td></tr><tr><td style="font-weight:bold;vertical-align:top;">wsgi</td><td style="vertical-align:top;">:</td><td><div>&lt;gluon.main.LazyWSGI object at 0x7ff0d1eb1d10&gt;</div></td></tr></table></div>'
tRp69
sS'frames'
p70
(lp71
(dp72
S'file'
p73
S'/opt/python/web2py/web2py/gluon/restricted.py'
p74
sS'dump'
p75
(dp76
S'code'
p77
S'r"response.write(\'<!DOCTYPE html>\\n<!--[if (gt IE ...  </script>\\n  </body>\\n</html>\\n\', escape=False)"'
p78
sS'layer'
p79
S"'/opt/python/web2py/web2py/applications/cvrf/views/default/index.html'"
p80
sS'global compile2'
p81
S'<function compile2>'
p82
sS'ccode'
p83
S'undefined'
p84
ssS'lnum'
p85
I226
sS'lines'
p86
(dp87
I224
S'            ccode = code'
p88
sI225
S'        else:'
p89
sI226
S'            ccode = compile2(code, layer)'
p90
sI227
S'        exec ccode in environment'
p91
sI228
S'    except HTTP:'
p92
sI229
S'        raise'
p93
sI230
S'    except RestrictedError:'
p94
sI221
S"    environment['__name__'] = '__restricted__'"
p95
sI222
S'    try:'
p96
sI223
S'        if isinstance(code, types.CodeType):'
p97
ssS'call'
p98
S'(code=r"response.write(\'<!DOCTYPE html>\\n<!--[if (gt IE ...  </script>\\n  </body>\\n</html>\\n\', escape=False)", environment={\'A\': <class \'gluon.html.A\'>, \'ANY_OF\': <class \'gluon.validators.ANY_OF\'>, \'ASSIGNJS\': <function ASSIGNJS>, \'AppConfig\': <function AppConfig>, \'Auth\': <class \'gluon.tools.Auth\'>, \'B\': <class \'gluon.html.B\'>, \'BEAUTIFY\': <class \'gluon.html.BEAUTIFY\'>, \'BODY\': <class \'gluon.html.BODY\'>, \'BR\': <class \'gluon.html.BR\'>, \'BUTTON\': <class \'gluon.html.BUTTON\'>, ...}, layer=\'/opt/python/web2py/web2py/applications/cvrf/views/default/index.html\')'
p99
sS'func'
p100
S'restricted'
p101
sa(dp102
g73
S'/opt/python/web2py/web2py/gluon/restricted.py'
p103
sg75
(dp104
S'builtincompile'
p105
S'<built-in function compile>'
p106
sS'code'
p107
S'r"response.write(\'<!DOCTYPE html>\\n<!--[if (gt IE ...  </script>\\n  </body>\\n</html>\\n\', escape=False)"'
p108
sS'code.rstrip'
p109
S'<built-in method rstrip of str object>'
p110
sS').replace'
p111
g84
sS'layer'
p112
S"'/opt/python/web2py/web2py/applications/cvrf/views/default/index.html'"
p113
ssg85
I209
sg86
(dp114
I204
S'def compile2(code, layer):'
p115
sI205
S'    """'
p116
sI206
S"    The ``+'\\\\n'`` is necessary else compile fails when code ends in a comment."
p117
sI207
S'    """'
p118
sI208
S''
sI209
S"    return compile(code.rstrip().replace('\\r\\n', '\\n') + '\\n', layer, 'exec')"
p119
sI210
S''
sI211
S''
sI212
S"def restricted(code, environment=None, layer='Unknown'):"
p120
sI213
S'    """'
p121
ssg98
S'(code=r"response.write(\'<!DOCTYPE html>\\n<!--[if (gt IE ...  </script>\\n  </body>\\n</html>\\n\', escape=False)", layer=\'/opt/python/web2py/web2py/applications/cvrf/views/default/index.html\')'
p122
sg100
S'compile2'
p123
sasS'pyver'
p124
S'Python 2.7.12: /usr/bin/python (prefix: /usr)'
p125
sS'session'
p126
g68
(S's\x9c\x00\x00\x00<div><table><tr><td style="font-weight:bold;vertical-align:top;">flash</td><td style="vertical-align:top;">:</td><td><div>None</div></td></tr></table></div>'
tRp127
sS'etype'
p128
S"<type 'exceptions.SyntaxError'>"
p129
sS'date'
p130
S'Tue Mar 21 12:50:39 2017'
p131
sS'response'
p132
g68
(S's@\x1f\x00\x00<div><table><tr><td style="font-weight:bold;vertical-align:top;">body</td><td style="vertical-align:top;">:</td><td><div>&lt;cStringIO.StringO object at 0x7ff0c8abea78&gt;</div></td></tr><tr><td style="font-weight:bold;vertical-align:top;">cookies</td><td style="vertical-align:top;">:</td><td><div><table><tr><td style="font-weight:bold;vertical-align:top;">session_id_cvrf</td><td style="vertical-align:top;">:</td><td><div>19:a866d1ba-eff0-45de-b863-39a661fa35eb<table><tr><td style="font-weight:bold;vertical-align:top;">comment</td><td style="vertical-align:top;">:</td><td><div></div></td></tr><tr><td style="font-weight:bold;vertical-align:top;">domain</td><td style="vertical-align:top;">:</td><td><div></div></td></tr><tr><td style="font-weight:bold;vertical-align:top;">expires</td><td style="vertical-align:top;">:</td><td><div></div></td></tr><tr><td style="font-weight:bold;vertical-align:top;">httponly</td><td style="vertical-align:top;">:</td><td><div></div></td></tr><tr><td style="font-weight:bold;vertical-align:top;">max-age</td><td style="vertical-align:top;">:</td><td><div></div></td></tr><tr><td style="font-weight:bold;vertical-align:top;">path</td><td style="vertical-align:top;">:</td><td><div>/</div></td></tr><tr><td style="font-weight:bold;vertical-align:top;">secure</td><td style="vertical-align:top;">:</td><td><div></div></td></tr><tr><td style="font-weight:bold;vertical-align:top;">version</td><td style="vertical-align:top;">:</td><td><div></div></td></tr></table></div></td></tr></table></div></td></tr><tr><td style="font-weight:bold;vertical-align:top;">delimiters</td><td style="vertical-align:top;">:</td><td><div><table><tr><td><div>{{</div></td></tr><tr><td><div>}}</div></td></tr></table></div></td></tr><tr><td style="font-weight:bold;vertical-align:top;">files</td><td style="vertical-align:top;">:</td><td><div><table></table></div></td></tr><tr><td style="font-weight:bold;vertical-align:top;">flash</td><td style="vertical-align:top;">:</td><td><div></div></td></tr><tr><td style="font-weight:bold;vertical-align:top;">form_label_separator</td><td style="vertical-align:top;">:</td><td><div></div></td></tr><tr><td style="font-weight:bold;vertical-align:top;">formstyle</td><td style="vertical-align:top;">:</td><td><div>bootstrap3_inline</div></td></tr><tr><td style="font-weight:bold;vertical-align:top;">generic_patterns</td><td style="vertical-align:top;">:</td><td><div><table><tr><td><div>*</div></td></tr></table></div></td></tr><tr><td style="font-weight:bold;vertical-align:top;">google_analytics_id</td><td style="vertical-align:top;">:</td><td><div>None</div></td></tr><tr><td style="font-weight:bold;vertical-align:top;">headers</td><td style="vertical-align:top;">:</td><td><div><table><tr><td style="font-weight:bold;vertical-align:top;">X-Powered-By</td><td style="vertical-align:top;">:</td><td><div>web2py</div></td></tr></table></div></td></tr><tr><td style="font-weight:bold;vertical-align:top;">logo</td><td style="vertical-align:top;">:</td><td><div><h5><a class="navbar-brand-name" data-target="#index" href="/cvrf/default/index" id="index"><img class="logo" src="/cvrf/static/img/favicon.png" /></a></h5></div></td></tr><tr><td style="font-weight:bold;vertical-align:top;">menu</td><td style="vertical-align:top;">:</td><td><div><table><tr><td><div><table><tr><td><div>home</div></td></tr><tr><td><div>False</div></td></tr><tr><td><div><a data-target="#homepage" href="/cvrf/default/index#homepage">Inicio</a></div></td></tr></table></div></td></tr><tr><td><div><table><tr><td><div>services</div></td></tr><tr><td><div>False</div></td></tr><tr><td><div><a data-target="#services" href="/cvrf/default/index#services">Servicios</a></div></td></tr></table></div></td></tr><tr><td><div><table><tr><td><div>about</div></td></tr><tr><td><div>False</div></td></tr><tr><td><div><a data-target="#about" href="/cvrf/default/index#about">Acerca de</a></div></td></tr></table></div></td></tr><tr><td><div><table><tr><td><div>information</div></td></tr><tr><td><div>False</div></td></tr><tr><td><div><a data-target="#information" href="/cvrf/default/index#information">Contact us</a></div></td></tr></table></div></td></tr></table></div></td></tr><tr><td style="font-weight:bold;vertical-align:top;">meta</td><td style="vertical-align:top;">:</td><td><div><table><tr><td style="font-weight:bold;vertical-align:top;">author</td><td style="vertical-align:top;">:</td><td><div>ysantalla@upr.edu.cu</div></td></tr><tr><td style="font-weight:bold;vertical-align:top;">description</td><td style="vertical-align:top;">:</td><td><div>FASDF</div></td></tr><tr><td style="font-weight:bold;vertical-align:top;">generator</td><td style="vertical-align:top;">:</td><td><div>Web2py Web Framework</div></td></tr><tr><td style="font-weight:bold;vertical-align:top;">keywords</td><td style="vertical-align:top;">:</td><td><div>FSDF</div></td></tr></table></div></td></tr><tr><td style="font-weight:bold;vertical-align:top;">models_to_run</td><td style="vertical-align:top;">:</td><td><div><table><tr><td><div>^\\w+\\.py$</div></td></tr><tr><td><div>^default/\\w+\\.py$</div></td></tr><tr><td><div>^default/index/\\w+\\.py$</div></td></tr></table></div></td></tr><tr><td style="font-weight:bold;vertical-align:top;">postprocessing</td><td style="vertical-align:top;">:</td><td><div><table></table></div></td></tr><tr><td style="font-weight:bold;vertical-align:top;">session_client</td><td style="vertical-align:top;">:</td><td><div>127.0.0.1</div></td></tr><tr><td style="font-weight:bold;vertical-align:top;">session_cookie_compression_level</td><td style="vertical-align:top;">:</td><td><div>None</div></td></tr><tr><td style="font-weight:bold;vertical-align:top;">session_cookie_expires</td><td style="vertical-align:top;">:</td><td><div>None</div></td></tr><tr><td style="font-weight:bold;vertical-align:top;">session_data_name</td><td style="vertical-align:top;">:</td><td><div>session_data_cvrf</div></td></tr><tr><td style="font-weight:bold;vertical-align:top;">session_db_record_id</td><td style="vertical-align:top;">:</td><td><div>19L</div></td></tr><tr><td style="font-weight:bold;vertical-align:top;">session_db_table</td><td style="vertical-align:top;">:</td><td><div>&lt;Table web2py_session_cvrf (id, locked, client_ip, created_datetime, modified_datetime, unique_key, session_data)&gt;</div></td></tr><tr><td style="font-weight:bold;vertical-align:top;">session_db_unique_key</td><td style="vertical-align:top;">:</td><td><div>a866d1ba-eff0-45de-b863-39a661fa35eb</div></td></tr><tr><td style="font-weight:bold;vertical-align:top;">session_hash</td><td style="vertical-align:top;">:</td><td><div>bcaa95ad4230fb34c9b383e753fbc2ad</div></td></tr><tr><td style="font-weight:bold;vertical-align:top;">session_id</td><td style="vertical-align:top;">:</td><td><div>19:a866d1ba-eff0-45de-b863-39a661fa35eb</div></td></tr><tr><td style="font-weight:bold;vertical-align:top;">session_id_name</td><td style="vertical-align:top;">:</td><td><div>session_id_cvrf</div></td></tr><tr><td style="font-weight:bold;vertical-align:top;">session_masterapp</td><td style="vertical-align:top;">:</td><td><div>cvrf</div></td></tr><tr><td style="font-weight:bold;vertical-align:top;">session_new</td><td style="vertical-align:top;">:</td><td><div>False</div></td></tr><tr><td style="font-weight:bold;vertical-align:top;">session_storage_type</td><td style="vertical-align:top;">:</td><td><div>db</div></td></tr><tr><td style="font-weight:bold;vertical-align:top;">status</td><td style="vertical-align:top;">:</td><td><div>200</div></td></tr><tr><td style="font-weight:bold;vertical-align:top;">subtitle</td><td style="vertical-align:top;">:</td><td><div>FASDF</div></td></tr><tr><td style="font-weight:bold;vertical-align:top;">title</td><td style="vertical-align:top;">:</td><td><div>Homepage | UPR</div></td></tr><tr><td style="font-weight:bold;vertical-align:top;">view</td><td style="vertical-align:top;">:</td><td><div>default/index.html</div></td></tr></table></div>'
tRp133
sS'locals'
p134
(dp135
g4
S"'/opt/python/web2py/web2py/applications/cvrf/views/default/index.html'"
p136
sg6
S'r"response.write(\'<!DOCTYPE html>\\n<!--[if (gt IE ...  </script>\\n  </body>\\n</html>\\n\', escape=False)"'
p137
sssS'traceback'
p138
S'Traceback (most recent call last):\n  File "/opt/python/web2py/web2py/gluon/restricted.py", line 226, in restricted\n    ccode = compile2(code, layer)\n  File "/opt/python/web2py/web2py/gluon/restricted.py", line 209, in compile2\n    return compile(code.rstrip().replace(\'\\r\\n\', \'\\n\') + \'\\n\', layer, \'exec\')\n  File "/opt/python/web2py/web2py/applications/cvrf/views/default/index.html", line 122\n    response.write(\'</h1></li>\\n                        <li><h2 class="wow fadeInUp" data-wow-delay="0.3s" id="users">0</h2></li>\\n                    </ul>\\n                </div>\\n                <div class="col-md-4">\\n                    <ul>\\n                        <li><h1 class="wow fadeInUp" data-wow-delay="0.2s"><ico class="glyphicon glyphicon-download"></ico>\', escape=False)\n           ^\nSyntaxError: invalid syntax\n'
p139
s.