(dp1
S'output'
p2
S"<type 'exceptions.NameError'> name 'i' is not defined"
p3
sS'layer'
p4
S'/opt/python/web2py/web2py/applications/cvrf/views/forum/comments.load'
p5
sS'code'
p6
S'if entry:\n    response.write(\'\\n\\n    \', escape=False)\n    from gluon.tools import prettydate\n    response.write(\'\\n\\n    <div class="container-fluid">\\n            <div class="row">\\n                 <div class="col-md-2">\\n                    \', escape=False)\n    response.write(A(CAT(XML(\'<icon class="glyphicon glyphicon-arrow-left"></icon>\'),T(" Back")), _class="btn btn-info", _href=URL("forum", "entries.load", args=request.args, vars=request.vars), cid=request.cid))\n    response.write(\'\\n                     \', escape=False)\n    response.write(A(CAT(XML(\'<icon class="glyphicon glyphicon-comment"></icon>\'), \' \', count), _class="btn btn-info", _href=URL("forum", "comments.load", args=request.args, vars=request.vars), cid=request.cid, **{\'_data-toggle\':"tooltip", \'_data-placement\':"right", \'_title\': T("Update")}))\n    response.write(\'\\n                </div>\\n\\n                <div class="col-md-8">\\n                    \', escape=False)\n    response.write(A(H2(entry.title.capitalize(), **{\'_data-toggle\':"popover" ,\'_data-trigger\':"hover", \'_data-placement\':"bottom" ,\'_title\': T("Description"), \'_data-content\': entry.description})))\n    response.write(\'\\n                </div>\\n                <div class="col-md-2">\\n                    <h1>\', escape=False)\n    if entry.is_enabled:\n        response.write(\'<span class="label label-warning">\', escape=False)\n        response.write(T("Opened"))\n        response.write(\'</span>\', escape=False)\n    else:\n        response.write(\'<span class="label label-warning">\', escape=False)\n        response.write(T("Closed"))\n        response.write(\'</span>\', escape=False)\n        pass\n    response.write(\'</h1>\\n                </div>\\n            </div>\\n\\n            <div class="row">\\n                <div class="col-md-12">\\n                    <hr />\\n                    \', escape=False)\n    for comment in comments:\n        response.write(\'\\n                        <!--Card-->\\n                        <div class="card-search card wow fadeIn" data-wow-delay="\', escape=False)\n        response.write(i)\n        response.write(\'s">\\n                            <!--Card title-->\\n                            <div class="overlay hm-white-slight">\\n                                <div class="col-lg-8 col-md-8 col-sm-8 col-xs-8">\\n                                    \', escape=False)\n        if comment.created_by.photo:\n            response.write(\'\\n                                        \', escape=False)\n            response.write(IMG(_src=URL("default", "download", args=[comment.created_by.photo]), _width="30px"))\n            response.write(\'\\n                                    \', escape=False)\n            pass\n        response.write(\'\\n                                </div>\\n                                <div class="col-lg-4 col-md-4 col-sm-4 col-xs-4">\\n                                    \', escape=False)\n        response.write(T("Created ")+prettydate(comment.created_on,T)+T(" by "))\n        response.write(CAT(comment.created_by.username, \' \', XML(\'<ico class="glyphicon glyphicon-comment"></ico>\')))\n        response.write(\'\\n                                </div>\\n                                <!--Text-->\\n                            </div>\\n                            <!--/.Card title-->\\n\\n                            <!--Card content-->\\n                            <div class="card-block text-xs-center">\\n                                <div class="col-lg-12 col-md-12 col-sm-12 col-xs-12">\\n                                    <div class="col-lg-12 col-md-12 col-sm-12 col-xs-12">\\n                                </div>\\n                                </div>\\n                            </div>\\n                        </div>\\n                        <!--/.Card content-->\\n                    \', escape=False)\n        i=i+0.2\n        response.write(\'\\n                    \', escape=False)\n        pass\n    response.write(\'\\n\\n                    \', escape=False)\n    if entry.is_enabled:\n        response.write(\'\\n                        \', escape=False)\n        if(auth.user!=None):\n            response.write(\'\\n                            <div class="col-md-8">\\n                                \', escape=False)\n            response.write(form)\n            response.write(\'\\n                            </div>\\n                        \', escape=False)\n        else:\n            response.write(\'\\n                            \', escape=False)\n            response.write(A(CAT(T("Login to comment")," ",XML(\'<ico class="glyphicon glyphicon-comment"></ico> \')),_href=URL(\'default\', \'user.html\', args="login", vars={"_next": URL(\'forum\', \'index.html\', args=request.args, vars=request.vars)}), _class="btn"))\n            response.write(\'\\n                        \', escape=False)\n            pass\n        response.write(\'\\n                    \', escape=False)\n        pass\n    response.write(\'\\n                    </div>\\n        </div>\\n    </div>\\n\', escape=False)\nelse:\n    response.write(\'\\n    <h1>\', escape=False)\n    response.write(T("Error entry not found"))\n    response.write(\'</h1>\\n\', escape=False)\n    pass\nresponse.write(\'\\n\\n\', escape=False)\nresponse.write(\'\\n  \', escape=False)\nresponse.write(\'\\n    <script>\\n     $(function() {\\n         $(\\\'[data-toggle="popover"]\\\').popover();\\n         $(\\\'[data-toggle="tooltip"]\\\').tooltip();\\n         $(\\\'#forum_comment_text\\\').attr(\\\'rows\\\', 5);\\n     });\\n    </script>\\n\', escape=False)\nresponse.write(\'\\n\', escape=False)'
p7
sS'snapshot'
p8
(dp9
S'exception'
p10
(dp11
S'__hash__'
p12
S"<method-wrapper '__hash__' of exceptions.NameError object>"
p13
sS'__setattr__'
p14
S"<method-wrapper '__setattr__' of exceptions.NameError object>"
p15
sS'__reduce_ex__'
p16
S'<built-in method __reduce_ex__ of exceptions.NameError object>'
p17
sS'__getslice__'
p18
S"<method-wrapper '__getslice__' of exceptions.NameError object>"
p19
sS'__getitem__'
p20
S"<method-wrapper '__getitem__' of exceptions.NameError object>"
p21
sS'__setstate__'
p22
S'<built-in method __setstate__ of exceptions.NameError object>'
p23
sS'args'
p24
S'("name \'i\' is not defined",)'
p25
sS'__reduce__'
p26
S'<built-in method __reduce__ of exceptions.NameError object>'
p27
sS'__str__'
p28
S"<method-wrapper '__str__' of exceptions.NameError object>"
p29
sS'__format__'
p30
S'<built-in method __format__ of exceptions.NameError object>'
p31
sS'__getattribute__'
p32
S"<method-wrapper '__getattribute__' of exceptions.NameError object>"
p33
sS'__class__'
p34
S"<type 'exceptions.NameError'>"
p35
sS'__unicode__'
p36
S'<built-in method __unicode__ of exceptions.NameError object>'
p37
sS'__delattr__'
p38
S"<method-wrapper '__delattr__' of exceptions.NameError object>"
p39
sS'__subclasshook__'
p40
S'<built-in method __subclasshook__ of type object>'
p41
sS'__repr__'
p42
S"<method-wrapper '__repr__' of exceptions.NameError object>"
p43
sS'__dict__'
p44
S'{}'
p45
sS'__sizeof__'
p46
S'<built-in method __sizeof__ of exceptions.NameError object>'
p47
sS'__doc__'
p48
S"'Name not found globally.'"
p49
sS'__init__'
p50
S"<method-wrapper '__init__' of exceptions.NameError object>"
p51
sS'__new__'
p52
S'<built-in method __new__ of type object>'
p53
ssS'evalue'
p54
S"name 'i' is not defined"
p55
sS'request'
p56
cgluon.html
XML_unpickle
p57
(S's\xb8_\x00\x00<div><table><tr><td style="font-weight:bold;vertical-align:top;">ajax</td><td style="vertical-align:top;">:</td><td><div>True</div></td></tr><tr><td style="font-weight:bold;vertical-align:top;">application</td><td style="vertical-align:top;">:</td><td><div>cvrf</div></td></tr><tr><td style="font-weight:bold;vertical-align:top;">args</td><td style="vertical-align:top;">:</td><td><div><table><tr><td><div>comments</div></td></tr><tr><td><div>1</div></td></tr></table></div></td></tr><tr><td style="font-weight:bold;vertical-align:top;">cid</td><td style="vertical-align:top;">:</td><td><div>c987085877084</div></td></tr><tr><td style="font-weight:bold;vertical-align:top;">client</td><td style="vertical-align:top;">:</td><td><div>127.0.0.1</div></td></tr><tr><td style="font-weight:bold;vertical-align:top;">controller</td><td style="vertical-align:top;">:</td><td><div>forum</div></td></tr><tr><td style="font-weight:bold;vertical-align:top;">cookies</td><td style="vertical-align:top;">:</td><td><div><table><tr><td style="font-weight:bold;vertical-align:top;">session_id_admin</td><td style="vertical-align:top;">:</td><td><div>127.0.0.1-268e2d2c-d56a-4d80-9bbb-d8271e5eca38<table><tr><td style="font-weight:bold;vertical-align:top;">comment</td><td style="vertical-align:top;">:</td><td><div></div></td></tr><tr><td style="font-weight:bold;vertical-align:top;">domain</td><td style="vertical-align:top;">:</td><td><div></div></td></tr><tr><td style="font-weight:bold;vertical-align:top;">expires</td><td style="vertical-align:top;">:</td><td><div></div></td></tr><tr><td style="font-weight:bold;vertical-align:top;">httponly</td><td style="vertical-align:top;">:</td><td><div></div></td></tr><tr><td style="font-weight:bold;vertical-align:top;">max-age</td><td style="vertical-align:top;">:</td><td><div></div></td></tr><tr><td style="font-weight:bold;vertical-align:top;">path</td><td style="vertical-align:top;">:</td><td><div></div></td></tr><tr><td style="font-weight:bold;vertical-align:top;">secure</td><td style="vertical-align:top;">:</td><td><div></div></td></tr><tr><td style="font-weight:bold;vertical-align:top;">version</td><td style="vertical-align:top;">:</td><td><div></div></td></tr></table></div></td></tr><tr><td style="font-weight:bold;vertical-align:top;">session_id_cvrf</td><td style="vertical-align:top;">:</td><td><div>35:6b99a1e9-2e71-4290-bca5-6864b4971f38<table><tr><td style="font-weight:bold;vertical-align:top;">comment</td><td style="vertical-align:top;">:</td><td><div></div></td></tr><tr><td style="font-weight:bold;vertical-align:top;">domain</td><td style="vertical-align:top;">:</td><td><div></div></td></tr><tr><td style="font-weight:bold;vertical-align:top;">expires</td><td style="vertical-align:top;">:</td><td><div></div></td></tr><tr><td style="font-weight:bold;vertical-align:top;">httponly</td><td style="vertical-align:top;">:</td><td><div></div></td></tr><tr><td style="font-weight:bold;vertical-align:top;">max-age</td><td style="vertical-align:top;">:</td><td><div></div></td></tr><tr><td style="font-weight:bold;vertical-align:top;">path</td><td style="vertical-align:top;">:</td><td><div></div></td></tr><tr><td style="font-weight:bold;vertical-align:top;">secure</td><td style="vertical-align:top;">:</td><td><div></div></td></tr><tr><td style="font-weight:bold;vertical-align:top;">version</td><td style="vertical-align:top;">:</td><td><div></div></td></tr></table></div></td></tr><tr><td style="font-weight:bold;vertical-align:top;">session_id_welcome</td><td style="vertical-align:top;">:</td><td><div>127.0.0.1-eaf8bf8c-bd56-4c7b-a1a4-1e021c33f869<table><tr><td style="font-weight:bold;vertical-align:top;">comment</td><td style="vertical-align:top;">:</td><td><div></div></td></tr><tr><td style="font-weight:bold;vertical-align:top;">domain</td><td style="vertical-align:top;">:</td><td><div></div></td></tr><tr><td style="font-weight:bold;vertical-align:top;">expires</td><td style="vertical-align:top;">:</td><td><div></div></td></tr><tr><td style="font-weight:bold;vertical-align:top;">httponly</td><td style="vertical-align:top;">:</td><td><div></div></td></tr><tr><td style="font-weight:bold;vertical-align:top;">max-age</td><td style="vertical-align:top;">:</td><td><div></div></td></tr><tr><td style="font-weight:bold;vertical-align:top;">path</td><td style="vertical-align:top;">:</td><td><div></div></td></tr><tr><td style="font-weight:bold;vertical-align:top;">secure</td><td style="vertical-align:top;">:</td><td><div></div></td></tr><tr><td style="font-weight:bold;vertical-align:top;">version</td><td style="vertical-align:top;">:</td><td><div></div></td></tr></table></div></td></tr></table></div></td></tr><tr><td style="font-weight:bold;vertical-align:top;">env</td><td style="vertical-align:top;">:</td><td><div><table><tr><td style="font-weight:bold;vertical-align:top;">HTTP_ACCEPT</td><td style="vertical-align:top;">:</td><td><div>*/*</div></td></tr><tr><td style="font-weight:bold;vertical-align:top;">HTTP_ACCEPT_ENCODING</td><td style="vertical-align:top;">:</td><td><div>gzip, deflate, sdch, br</div></td></tr><tr><td style="font-weight:bold;vertical-align:top;">HTTP_ACCEPT_LANGUAGE</td><td style="vertical-align:top;">:</td><td><div>es-ES,es;q=0.8</div></td></tr><tr><td style="font-weight:bold;vertical-align:top;">HTTP_CONNECTION</td><td style="vertical-align:top;">:</td><td><div>keep-alive</div></td></tr><tr><td style="font-weight:bold;vertical-align:top;">HTTP_COOKIE</td><td style="vertical-align:top;">:</td><td><div>session_id_welcome=127.0.0.1-eaf8bf8c-bd56-4c7b-a1a4-1e021c33f869; session_id_admin=127.0.0.1-268e2d2c-d56a-4d80-9bbb-d8271e5eca38; session_id_cvrf=&quot;35:6b99a1e9-2e71-4290-bca5-6864b4971f38&quot;</div></td></tr><tr><td style="font-weight:bold;vertical-align:top;">HTTP_HOST</td><td style="vertical-align:top;">:</td><td><div>127.0.0.1:8000</div></td></tr><tr><td style="font-weight:bold;vertical-align:top;">HTTP_REFERER</td><td style="vertical-align:top;">:</td><td><div>http://127.0.0.1:8000/cvrf/forum/index.html/comments/1</div></td></tr><tr><td style="font-weight:bold;vertical-align:top;">HTTP_USER_AGENT</td><td style="vertical-align:top;">:</td><td><div>Mozilla/5.0 (X11; Linux x86_64) AppleWebKit/537.36 (KHTML, like Gecko) Ubuntu Chromium/56.0.2924.76 Chrome/56.0.2924.76 Safari/537.36</div></td></tr><tr><td style="font-weight:bold;vertical-align:top;">HTTP_WEB2PY_COMPONENT_ELEMENT</td><td style="vertical-align:top;">:</td><td><div>c987085877084</div></td></tr><tr><td style="font-weight:bold;vertical-align:top;">HTTP_WEB2PY_COMPONENT_LOCATION</td><td style="vertical-align:top;">:</td><td><div>http://127.0.0.1:8000/cvrf/forum/index.html/comments/1#</div></td></tr><tr><td style="font-weight:bold;vertical-align:top;">HTTP_X_REQUESTED_WITH</td><td style="vertical-align:top;">:</td><td><div>XMLHttpRequest</div></td></tr><tr><td style="font-weight:bold;vertical-align:top;">PATH_INFO</td><td style="vertical-align:top;">:</td><td><div>/cvrf/forum/comments.load/comments/1</div></td></tr><tr><td style="font-weight:bold;vertical-align:top;">QUERY_STRING</td><td style="vertical-align:top;">:</td><td><div>_signature=36c2f64c1f89357c5325e9e04ba7c35aa7359b9d</div></td></tr><tr><td style="font-weight:bold;vertical-align:top;">REMOTE_ADDR</td><td style="vertical-align:top;">:</td><td><div>127.0.0.1</div></td></tr><tr><td style="font-weight:bold;vertical-align:top;">REMOTE_PORT</td><td style="vertical-align:top;">:</td><td><div>59198</div></td></tr><tr><td style="font-weight:bold;vertical-align:top;">REQUEST_METHOD</td><td style="vertical-align:top;">:</td><td><div>GET</div></td></tr><tr><td style="font-weight:bold;vertical-align:top;">SCRIPT_NAME</td><td style="vertical-align:top;">:</td><td><div></div></td></tr><tr><td style="font-weight:bold;vertical-align:top;">SERVER_NAME</td><td style="vertical-align:top;">:</td><td><div>yasmany-tp500lab</div></td></tr><tr><td style="font-weight:bold;vertical-align:top;">SERVER_PORT</td><td style="vertical-align:top;">:</td><td><div>8000</div></td></tr><tr><td style="font-weight:bold;vertical-align:top;">SERVER_PROTOCOL</td><td style="vertical-align:top;">:</td><td><div>HTTP/1.1</div></td></tr><tr><td style="font-weight:bold;vertical-align:top;">SERVER_SOFTWARE</td><td style="vertical-align:top;">:</td><td><div>Rocket 1.2.6</div></td></tr><tr><td style="font-weight:bold;vertical-align:top;">app_folders</td><td style="vertical-align:top;">:</td><td><div>set([&#x27;/opt/python/web2py/web2py/applications/cvrf/&#x27;, &#x27;/opt/python/web2py/web2py/applications/admin/&#x27;, &#x27;/opt/python/web2py/web2py/applications/welcome/&#x27;])</div></td></tr><tr><td style="font-weight:bold;vertical-align:top;">applications_parent</td><td style="vertical-align:top;">:</td><td><div>/opt/python/web2py/web2py</div></td></tr><tr><td style="font-weight:bold;vertical-align:top;">cmd_args</td><td style="vertical-align:top;">:</td><td><div><table></table></div></td></tr><tr><td style="font-weight:bold;vertical-align:top;">cmd_options</td><td style="vertical-align:top;">:</td><td><div>&lt;Values at 0x7f3e59c2af80: {&#x27;verbose&#x27;: False, &#x27;ip&#x27;: &#x27;127.0.0.1&#x27;, &#x27;debuglevel&#x27;: 30, &#x27;with_scheduler&#x27;: False, &#x27;shutdown_timeout&#x27;: 5, &#x27;taskbar&#x27;: False, &#x27;with_coverage&#x27;: False, &#x27;pid_filename&#x27;: &#x27;httpserver.pid&#x27;, &#x27;maxthreads&#x27;: None, &#x27;softcron&#x27;: False, &#x27;server_name&#x27;: &#x27;yasmany-tp500lab&#x27;, &#x27;bpython&#x27;: False, &#x27;nogui&#x27;: False, &#x27;port&#x27;: 8000, &#x27;print_errors&#x27;: False, &#x27;extcron&#x27;: False, &#x27;runcron&#x27;: False, &#x27;run_system_tests&#x27;: False, &#x27;test&#x27;: None, &#x27;folder&#x27;: &#x27;/opt/python/web2py/web2py&#x27;, &#x27;config&#x27;: &#x27;&#x27;, &#x27;minthreads&#x27;: None, &#x27;shell&#x27;: None, &#x27;run&#x27;: &#x27;&#x27;, &#x27;log_filename&#x27;: &#x27;httpserver.log&#x27;, &#x27;profiler_dir&#x27;: None, &#x27;args&#x27;: [&#x27;&#x27;], &#x27;socket_timeout&#x27;: 5, &#x27;ssl_ca_certificate&#x27;: None, &#x27;scheduler&#x27;: None, &#x27;interfaces&#x27;: None, &#x27;ssl_private_key&#x27;: &#x27;&#x27;, &#x27;gae&#x27;: None, &#x27;password&#x27;: &#x27;******&#x27;, &#x27;request_queue_size&#x27;: 5, &#x27;ssl_certificate&#x27;: &#x27;&#x27;, &#x27;cronjob&#x27;: False, &#x27;numthreads&#x27;: None, &#x27;quiet&#x27;: False, &#x27;import_models&#x27;: False, &#x27;timeout&#x27;: 10, &#x27;plain&#x27;: False, &#x27;nobanner&#x27;: False}&gt;</div></td></tr><tr><td style="font-weight:bold;vertical-align:top;">db_sessions</td><td style="vertical-align:top;">:</td><td><div>set([&#x27;cvrf&#x27;])</div></td></tr><tr><td style="font-weight:bold;vertical-align:top;">debugging</td><td style="vertical-align:top;">:</td><td><div>True</div></td></tr><tr><td style="font-weight:bold;vertical-align:top;">gluon_parent</td><td style="vertical-align:top;">:</td><td><div>/opt/python/web2py/web2py</div></td></tr><tr><td style="font-weight:bold;vertical-align:top;">http_accept</td><td style="vertical-align:top;">:</td><td><div>*/*</div></td></tr><tr><td style="font-weight:bold;vertical-align:top;">http_accept_encoding</td><td style="vertical-align:top;">:</td><td><div>gzip, deflate, sdch, br</div></td></tr><tr><td style="font-weight:bold;vertical-align:top;">http_accept_language</td><td style="vertical-align:top;">:</td><td><div>es-ES,es;q=0.8</div></td></tr><tr><td style="font-weight:bold;vertical-align:top;">http_connection</td><td style="vertical-align:top;">:</td><td><div>keep-alive</div></td></tr><tr><td style="font-weight:bold;vertical-align:top;">http_cookie</td><td style="vertical-align:top;">:</td><td><div>session_id_welcome=127.0.0.1-eaf8bf8c-bd56-4c7b-a1a4-1e021c33f869; session_id_admin=127.0.0.1-268e2d2c-d56a-4d80-9bbb-d8271e5eca38; session_id_cvrf=&quot;35:6b99a1e9-2e71-4290-bca5-6864b4971f38&quot;</div></td></tr><tr><td style="font-weight:bold;vertical-align:top;">http_host</td><td style="vertical-align:top;">:</td><td><div>127.0.0.1:8000</div></td></tr><tr><td style="font-weight:bold;vertical-align:top;">http_referer</td><td style="vertical-align:top;">:</td><td><div>http://127.0.0.1:8000/cvrf/forum/index.html/comments/1</div></td></tr><tr><td style="font-weight:bold;vertical-align:top;">http_user_agent</td><td style="vertical-align:top;">:</td><td><div>Mozilla/5.0 (X11; Linux x86_64) AppleWebKit/537.36 (KHTML, like Gecko) Ubuntu Chromium/56.0.2924.76 Chrome/56.0.2924.76 Safari/537.36</div></td></tr><tr><td style="font-weight:bold;vertical-align:top;">http_web2py_component_element</td><td style="vertical-align:top;">:</td><td><div>c987085877084</div></td></tr><tr><td style="font-weight:bold;vertical-align:top;">http_web2py_component_location</td><td style="vertical-align:top;">:</td><td><div>http://127.0.0.1:8000/cvrf/forum/index.html/comments/1#</div></td></tr><tr><td style="font-weight:bold;vertical-align:top;">http_x_requested_with</td><td style="vertical-align:top;">:</td><td><div>XMLHttpRequest</div></td></tr><tr><td style="font-weight:bold;vertical-align:top;">is_jython</td><td style="vertical-align:top;">:</td><td><div>False</div></td></tr><tr><td style="font-weight:bold;vertical-align:top;">is_pypy</td><td style="vertical-align:top;">:</td><td><div>False</div></td></tr><tr><td style="font-weight:bold;vertical-align:top;">is_source</td><td style="vertical-align:top;">:</td><td><div>True</div></td></tr><tr><td style="font-weight:bold;vertical-align:top;">local_hosts</td><td style="vertical-align:top;">:</td><td><div><table><tr><td><div>yasmany-tp500lab</div></td></tr><tr><td><div>127.0.1.1</div></td></tr><tr><td><div>::ffff:127.0.0.1</div></td></tr><tr><td><div>::1</div></td></tr><tr><td><div>yasmany-TP500LAB</div></td></tr><tr><td><div>127.0.0.1</div></td></tr></table></div></td></tr><tr><td style="font-weight:bold;vertical-align:top;">path_info</td><td style="vertical-align:top;">:</td><td><div>/cvrf/forum/comments.load/comments/1</div></td></tr><tr><td style="font-weight:bold;vertical-align:top;">query_string</td><td style="vertical-align:top;">:</td><td><div>_signature=36c2f64c1f89357c5325e9e04ba7c35aa7359b9d</div></td></tr><tr><td style="font-weight:bold;vertical-align:top;">remote_addr</td><td style="vertical-align:top;">:</td><td><div>127.0.0.1</div></td></tr><tr><td style="font-weight:bold;vertical-align:top;">remote_port</td><td style="vertical-align:top;">:</td><td><div>59198</div></td></tr><tr><td style="font-weight:bold;vertical-align:top;">request_method</td><td style="vertical-align:top;">:</td><td><div>GET</div></td></tr><tr><td style="font-weight:bold;vertical-align:top;">request_uri</td><td style="vertical-align:top;">:</td><td><div>/cvrf/forum/comments.load/comments/1?_signature=36c2f64c1f89357c5325e9e04ba7c35aa7359b9d</div></td></tr><tr><td style="font-weight:bold;vertical-align:top;">script_name</td><td style="vertical-align:top;">:</td><td><div></div></td></tr><tr><td style="font-weight:bold;vertical-align:top;">server_name</td><td style="vertical-align:top;">:</td><td><div>yasmany-tp500lab</div></td></tr><tr><td style="font-weight:bold;vertical-align:top;">server_port</td><td style="vertical-align:top;">:</td><td><div>8000</div></td></tr><tr><td style="font-weight:bold;vertical-align:top;">server_protocol</td><td style="vertical-align:top;">:</td><td><div>HTTP/1.1</div></td></tr><tr><td style="font-weight:bold;vertical-align:top;">server_software</td><td style="vertical-align:top;">:</td><td><div>Rocket 1.2.6</div></td></tr><tr><td style="font-weight:bold;vertical-align:top;">web2py_path</td><td style="vertical-align:top;">:</td><td><div>/opt/python/web2py/web2py</div></td></tr><tr><td style="font-weight:bold;vertical-align:top;">web2py_version</td><td style="vertical-align:top;">:</td><td><div>2.14.6-stable+timestamp.2016.05.10.00.21.47</div></td></tr><tr><td style="font-weight:bold;vertical-align:top;">wsgi.errors</td><td style="vertical-align:top;">:</td><td><div>&lt;open file &#x27;&lt;stderr&gt;&#x27;, mode &#x27;w&#x27; at 0x7f3e60ee01e0&gt;</div></td></tr><tr><td style="font-weight:bold;vertical-align:top;">wsgi.file_wrapper</td><td style="vertical-align:top;">:</td><td><div>&lt;class wsgiref.util.FileWrapper at 0x7f3e59cbbf58&gt;</div></td></tr><tr><td style="font-weight:bold;vertical-align:top;">wsgi.input</td><td style="vertical-align:top;">:</td><td><div>&lt;socket._fileobject object at 0x7f3e113562d0&gt;</div></td></tr><tr><td style="font-weight:bold;vertical-align:top;">wsgi.multiprocess</td><td style="vertical-align:top;">:</td><td><div>False</div></td></tr><tr><td style="font-weight:bold;vertical-align:top;">wsgi.multithread</td><td style="vertical-align:top;">:</td><td><div>True</div></td></tr><tr><td style="font-weight:bold;vertical-align:top;">wsgi.run_once</td><td style="vertical-align:top;">:</td><td><div>False</div></td></tr><tr><td style="font-weight:bold;vertical-align:top;">wsgi.url_scheme</td><td style="vertical-align:top;">:</td><td><div>http</div></td></tr><tr><td style="font-weight:bold;vertical-align:top;">wsgi.version</td><td style="vertical-align:top;">:</td><td><div><table><tr><td><div>1</div></td></tr><tr><td><div>0</div></td></tr></table></div></td></tr><tr><td style="font-weight:bold;vertical-align:top;">wsgi_errors</td><td style="vertical-align:top;">:</td><td><div>&lt;open file &#x27;&lt;stderr&gt;&#x27;, mode &#x27;w&#x27; at 0x7f3e60ee01e0&gt;</div></td></tr><tr><td style="font-weight:bold;vertical-align:top;">wsgi_file_wrapper</td><td style="vertical-align:top;">:</td><td><div>&lt;class wsgiref.util.FileWrapper at 0x7f3e59cbbf58&gt;</div></td></tr><tr><td style="font-weight:bold;vertical-align:top;">wsgi_input</td><td style="vertical-align:top;">:</td><td><div>&lt;socket._fileobject object at 0x7f3e113562d0&gt;</div></td></tr><tr><td style="font-weight:bold;vertical-align:top;">wsgi_multiprocess</td><td style="vertical-align:top;">:</td><td><div>False</div></td></tr><tr><td style="font-weight:bold;vertical-align:top;">wsgi_multithread</td><td style="vertical-align:top;">:</td><td><div>True</div></td></tr><tr><td style="font-weight:bold;vertical-align:top;">wsgi_run_once</td><td style="vertical-align:top;">:</td><td><div>False</div></td></tr><tr><td style="font-weight:bold;vertical-align:top;">wsgi_url_scheme</td><td style="vertical-align:top;">:</td><td><div>http</div></td></tr><tr><td style="font-weight:bold;vertical-align:top;">wsgi_version</td><td style="vertical-align:top;">:</td><td><div><table><tr><td><div>1</div></td></tr><tr><td><div>0</div></td></tr></table></div></td></tr></table></div></td></tr><tr><td style="font-weight:bold;vertical-align:top;">extension</td><td style="vertical-align:top;">:</td><td><div>load</div></td></tr><tr><td style="font-weight:bold;vertical-align:top;">folder</td><td style="vertical-align:top;">:</td><td><div>/opt/python/web2py/web2py/applications/cvrf/</div></td></tr><tr><td style="font-weight:bold;vertical-align:top;">function</td><td style="vertical-align:top;">:</td><td><div>comments</div></td></tr><tr><td style="font-weight:bold;vertical-align:top;">global_settings</td><td style="vertical-align:top;">:</td><td><div><table><tr><td style="font-weight:bold;vertical-align:top;">app_folders</td><td style="vertical-align:top;">:</td><td><div>set([&#x27;/opt/python/web2py/web2py/applications/cvrf/&#x27;, &#x27;/opt/python/web2py/web2py/applications/admin/&#x27;, &#x27;/opt/python/web2py/web2py/applications/welcome/&#x27;])</div></td></tr><tr><td style="font-weight:bold;vertical-align:top;">applications_parent</td><td style="vertical-align:top;">:</td><td><div>/opt/python/web2py/web2py</div></td></tr><tr><td style="font-weight:bold;vertical-align:top;">cmd_args</td><td style="vertical-align:top;">:</td><td><div><table></table></div></td></tr><tr><td style="font-weight:bold;vertical-align:top;">cmd_options</td><td style="vertical-align:top;">:</td><td><div>&lt;Values at 0x7f3e59c2af80: {&#x27;verbose&#x27;: False, &#x27;ip&#x27;: &#x27;127.0.0.1&#x27;, &#x27;debuglevel&#x27;: 30, &#x27;with_scheduler&#x27;: False, &#x27;shutdown_timeout&#x27;: 5, &#x27;taskbar&#x27;: False, &#x27;with_coverage&#x27;: False, &#x27;pid_filename&#x27;: &#x27;httpserver.pid&#x27;, &#x27;maxthreads&#x27;: None, &#x27;softcron&#x27;: False, &#x27;server_name&#x27;: &#x27;yasmany-tp500lab&#x27;, &#x27;bpython&#x27;: False, &#x27;nogui&#x27;: False, &#x27;port&#x27;: 8000, &#x27;print_errors&#x27;: False, &#x27;extcron&#x27;: False, &#x27;runcron&#x27;: False, &#x27;run_system_tests&#x27;: False, &#x27;test&#x27;: None, &#x27;folder&#x27;: &#x27;/opt/python/web2py/web2py&#x27;, &#x27;config&#x27;: &#x27;&#x27;, &#x27;minthreads&#x27;: None, &#x27;shell&#x27;: None, &#x27;run&#x27;: &#x27;&#x27;, &#x27;log_filename&#x27;: &#x27;httpserver.log&#x27;, &#x27;profiler_dir&#x27;: None, &#x27;args&#x27;: [&#x27;&#x27;], &#x27;socket_timeout&#x27;: 5, &#x27;ssl_ca_certificate&#x27;: None, &#x27;scheduler&#x27;: None, &#x27;interfaces&#x27;: None, &#x27;ssl_private_key&#x27;: &#x27;&#x27;, &#x27;gae&#x27;: None, &#x27;password&#x27;: &#x27;******&#x27;, &#x27;request_queue_size&#x27;: 5, &#x27;ssl_certificate&#x27;: &#x27;&#x27;, &#x27;cronjob&#x27;: False, &#x27;numthreads&#x27;: None, &#x27;quiet&#x27;: False, &#x27;import_models&#x27;: False, &#x27;timeout&#x27;: 10, &#x27;plain&#x27;: False, &#x27;nobanner&#x27;: False}&gt;</div></td></tr><tr><td style="font-weight:bold;vertical-align:top;">db_sessions</td><td style="vertical-align:top;">:</td><td><div>set([&#x27;cvrf&#x27;])</div></td></tr><tr><td style="font-weight:bold;vertical-align:top;">debugging</td><td style="vertical-align:top;">:</td><td><div>True</div></td></tr><tr><td style="font-weight:bold;vertical-align:top;">gluon_parent</td><td style="vertical-align:top;">:</td><td><div>/opt/python/web2py/web2py</div></td></tr><tr><td style="font-weight:bold;vertical-align:top;">is_jython</td><td style="vertical-align:top;">:</td><td><div>False</div></td></tr><tr><td style="font-weight:bold;vertical-align:top;">is_pypy</td><td style="vertical-align:top;">:</td><td><div>False</div></td></tr><tr><td style="font-weight:bold;vertical-align:top;">is_source</td><td style="vertical-align:top;">:</td><td><div>True</div></td></tr><tr><td style="font-weight:bold;vertical-align:top;">local_hosts</td><td style="vertical-align:top;">:</td><td><div><table><tr><td><div>yasmany-tp500lab</div></td></tr><tr><td><div>127.0.1.1</div></td></tr><tr><td><div>::ffff:127.0.0.1</div></td></tr><tr><td><div>::1</div></td></tr><tr><td><div>yasmany-TP500LAB</div></td></tr><tr><td><div>127.0.0.1</div></td></tr></table></div></td></tr><tr><td style="font-weight:bold;vertical-align:top;">web2py_version</td><td style="vertical-align:top;">:</td><td><div>2.14.6-stable+timestamp.2016.05.10.00.21.47</div></td></tr></table></div></td></tr><tr><td style="font-weight:bold;vertical-align:top;">is_https</td><td style="vertical-align:top;">:</td><td><div>False</div></td></tr><tr><td style="font-weight:bold;vertical-align:top;">is_local</td><td style="vertical-align:top;">:</td><td><div>True</div></td></tr><tr><td style="font-weight:bold;vertical-align:top;">is_restful</td><td style="vertical-align:top;">:</td><td><div>False</div></td></tr><tr><td style="font-weight:bold;vertical-align:top;">is_scheduler</td><td style="vertical-align:top;">:</td><td><div>False</div></td></tr><tr><td style="font-weight:bold;vertical-align:top;">is_shell</td><td style="vertical-align:top;">:</td><td><div>False</div></td></tr><tr><td style="font-weight:bold;vertical-align:top;">now</td><td style="vertical-align:top;">:</td><td><div>datetime.datetime(2017, 3, 24, 9, 52, 6, 498373)</div></td></tr><tr><td style="font-weight:bold;vertical-align:top;">raw_args</td><td style="vertical-align:top;">:</td><td><div>comments/1</div></td></tr><tr><td style="font-weight:bold;vertical-align:top;">raw_extension</td><td style="vertical-align:top;">:</td><td><div>load</div></td></tr><tr><td style="font-weight:bold;vertical-align:top;">url</td><td style="vertical-align:top;">:</td><td><div>/cvrf/forum/comments.load/comments/1</div></td></tr><tr><td style="font-weight:bold;vertical-align:top;">utcnow</td><td style="vertical-align:top;">:</td><td><div>datetime.datetime(2017, 3, 24, 13, 52, 6, 498396)</div></td></tr><tr><td style="font-weight:bold;vertical-align:top;">wsgi</td><td style="vertical-align:top;">:</td><td><div>&lt;gluon.main.LazyWSGI object at 0x7f3e1135b110&gt;</div></td></tr></table></div>'
tRp58
sS'frames'
p59
(lp60
(dp61
S'file'
p62
S'/opt/python/web2py/web2py/gluon/restricted.py'
p63
sS'dump'
p64
(dp65
S'environment'
p66
S"{'A': <class 'gluon.html.A'>, 'ANY_OF': <class 'gluon.validators.ANY_OF'>, 'ASSIGNJS': <function ASSIGNJS>, 'AppConfig': <function AppConfig>, 'Auth': <class 'gluon.tools.Auth'>, 'B': <class 'gluon.html.B'>, 'BEAUTIFY': <class 'gluon.html.BEAUTIFY'>, 'BODY': <class 'gluon.html.BODY'>, 'BR': <class 'gluon.html.BR'>, 'BUTTON': <class 'gluon.html.BUTTON'>, ...}"
p67
sS'ccode'
p68
S'<code object <module> at 0x7f3e11555c30, file "/...ications/cvrf/views/forum/comments.load", line 1>'
p69
ssS'lnum'
p70
I227
sS'lines'
p71
(dp72
I224
S'            ccode = code'
p73
sI225
S'        else:'
p74
sI226
S'            ccode = compile2(code, layer)'
p75
sI227
S'        exec ccode in environment'
p76
sI228
S'    except HTTP:'
p77
sI229
S'        raise'
p78
sI230
S'    except RestrictedError:'
p79
sI231
S'        # do not encapsulate (obfuscate) the original RestrictedError'
p80
sI222
S'    try:'
p81
sI223
S'        if isinstance(code, types.CodeType):'
p82
ssS'call'
p83
S'(code="if entry:\\n    response.write(\'\\\\n\\\\n    \', escape=... escape=False)\\nresponse.write(\'\\\\n\', escape=False)", environment={\'A\': <class \'gluon.html.A\'>, \'ANY_OF\': <class \'gluon.validators.ANY_OF\'>, \'ASSIGNJS\': <function ASSIGNJS>, \'AppConfig\': <function AppConfig>, \'Auth\': <class \'gluon.tools.Auth\'>, \'B\': <class \'gluon.html.B\'>, \'BEAUTIFY\': <class \'gluon.html.BEAUTIFY\'>, \'BODY\': <class \'gluon.html.BODY\'>, \'BR\': <class \'gluon.html.BR\'>, \'BUTTON\': <class \'gluon.html.BUTTON\'>, ...}, layer=\'/opt/python/web2py/web2py/applications/cvrf/views/forum/comments.load\')'
p84
sS'func'
p85
S'restricted'
p86
sa(dp87
g62
S'/opt/python/web2py/web2py/applications/cvrf/views/forum/comments.load'
p88
sg64
(dp89
S'comment'
p90
S"<Row {'modified_by': 3L, 'forum': 1L, 'text': '<...ime.datetime(2017, 3, 23, 19, 10, 35), 'id': 1L}>"
p91
sS'comments'
p92
S'<Rows (11)>'
p93
ssg70
I23
sg71
(dp94
I18
S'            </div>'
p95
sI19
S''
sI20
S'            <div class="row">'
p96
sI21
S'                <div class="col-md-12">'
p97
sI22
S'                    <hr />'
p98
sI23
S'                    {{for comment in comments:}}'
p99
sI24
S'                        <!--Card-->'
p100
sI25
S'                        <div class="card-search card wow fadeIn" data-wow-delay="{{=i}}s">'
p101
sI26
S'                            <!--Card title-->'
p102
sI27
S'                            <div class="overlay hm-white-slight">'
p103
ssg83
S'()'
p104
sg85
S'<module>'
p105
sasS'pyver'
p106
S'Python 2.7.12: /usr/bin/python (prefix: /usr)'
p107
sS'session'
p108
g57
(S's\x1e\x0f\x00\x00<div><table><tr><td style="font-weight:bold;vertical-align:top;">auth</td><td style="vertical-align:top;">:</td><td><div><table><tr><td style="font-weight:bold;vertical-align:top;">expiration</td><td style="vertical-align:top;">:</td><td><div>3600</div></td></tr><tr><td style="font-weight:bold;vertical-align:top;">hmac_key</td><td style="vertical-align:top;">:</td><td><div>086fd9da-2a78-48cc-b473-fb4616b8307b</div></td></tr><tr><td style="font-weight:bold;vertical-align:top;">last_visit</td><td style="vertical-align:top;">:</td><td><div>datetime.datetime(2017, 3, 24, 9, 47, 53, 765056)</div></td></tr><tr><td style="font-weight:bold;vertical-align:top;">remember_me</td><td style="vertical-align:top;">:</td><td><div>False</div></td></tr><tr><td style="font-weight:bold;vertical-align:top;">user</td><td style="vertical-align:top;">:</td><td><div><table><tr><td style="font-weight:bold;vertical-align:top;">categories</td><td style="vertical-align:top;">:</td><td><div><table><tr><td><div>3L</div></td></tr><tr><td><div>2L</div></td></tr></table></div></td></tr><tr><td style="font-weight:bold;vertical-align:top;">categories_review</td><td style="vertical-align:top;">:</td><td><div><table><tr><td><div>3L</div></td></tr><tr><td><div>2L</div></td></tr></table></div></td></tr><tr><td style="font-weight:bold;vertical-align:top;">conected</td><td style="vertical-align:top;">:</td><td><div>None</div></td></tr><tr><td style="font-weight:bold;vertical-align:top;">email</td><td style="vertical-align:top;">:</td><td><div>danilo@upr.edu.cu</div></td></tr><tr><td style="font-weight:bold;vertical-align:top;">first_name</td><td style="vertical-align:top;">:</td><td><div>Danilo</div></td></tr><tr><td style="font-weight:bold;vertical-align:top;">id</td><td style="vertical-align:top;">:</td><td><div>3L</div></td></tr><tr><td style="font-weight:bold;vertical-align:top;">last_name</td><td style="vertical-align:top;">:</td><td><div>Pereda</div></td></tr><tr><td style="font-weight:bold;vertical-align:top;">notification</td><td style="vertical-align:top;">:</td><td><div>True</div></td></tr><tr><td style="font-weight:bold;vertical-align:top;">photo</td><td style="vertical-align:top;">:</td><td><div>auth_user.photo.9e2c78185232970b.757365722d69636f6e2d362e706e67.png</div></td></tr><tr><td style="font-weight:bold;vertical-align:top;">registration_id</td><td style="vertical-align:top;">:</td><td><div></div></td></tr><tr><td style="font-weight:bold;vertical-align:top;">registration_key</td><td style="vertical-align:top;">:</td><td><div></div></td></tr><tr><td style="font-weight:bold;vertical-align:top;">reset_password_key</td><td style="vertical-align:top;">:</td><td><div></div></td></tr><tr><td style="font-weight:bold;vertical-align:top;">types</td><td style="vertical-align:top;">:</td><td><div><table><tr><td><div>2L</div></td></tr></table></div></td></tr><tr><td style="font-weight:bold;vertical-align:top;">username</td><td style="vertical-align:top;">:</td><td><div>danilo</div></td></tr></table></div></td></tr><tr><td style="font-weight:bold;vertical-align:top;">user_groups</td><td style="vertical-align:top;">:</td><td><div><table><tr><td style="font-weight:bold;vertical-align:top;">1</td><td style="vertical-align:top;">:</td><td><div>Administrador</div></td></tr><tr><td style="font-weight:bold;vertical-align:top;">2</td><td style="vertical-align:top;">:</td><td><div>Revisor</div></td></tr><tr><td style="font-weight:bold;vertical-align:top;">3</td><td style="vertical-align:top;">:</td><td><div>Editor</div></td></tr><tr><td style="font-weight:bold;vertical-align:top;">4</td><td style="vertical-align:top;">:</td><td><div>Publicador</div></td></tr></table></div></td></tr></table></div></td></tr><tr><td style="font-weight:bold;vertical-align:top;">flash</td><td style="vertical-align:top;">:</td><td><div>None</div></td></tr></table></div>'
tRp109
sS'etype'
p110
S"<type 'exceptions.NameError'>"
p111
sS'date'
p112
S'Fri Mar 24 09:52:06 2017'
p113
sS'response'
p114
g57
(S's\xce3\x00\x00<div><table><tr><td style="font-weight:bold;vertical-align:top;">body</td><td style="vertical-align:top;">:</td><td><div>&lt;cStringIO.StringO object at 0x7f3e11363ca8&gt;</div></td></tr><tr><td style="font-weight:bold;vertical-align:top;">cookies</td><td style="vertical-align:top;">:</td><td><div><table><tr><td style="font-weight:bold;vertical-align:top;">session_id_cvrf</td><td style="vertical-align:top;">:</td><td><div>35:6b99a1e9-2e71-4290-bca5-6864b4971f38<table><tr><td style="font-weight:bold;vertical-align:top;">comment</td><td style="vertical-align:top;">:</td><td><div></div></td></tr><tr><td style="font-weight:bold;vertical-align:top;">domain</td><td style="vertical-align:top;">:</td><td><div></div></td></tr><tr><td style="font-weight:bold;vertical-align:top;">expires</td><td style="vertical-align:top;">:</td><td><div></div></td></tr><tr><td style="font-weight:bold;vertical-align:top;">httponly</td><td style="vertical-align:top;">:</td><td><div></div></td></tr><tr><td style="font-weight:bold;vertical-align:top;">max-age</td><td style="vertical-align:top;">:</td><td><div></div></td></tr><tr><td style="font-weight:bold;vertical-align:top;">path</td><td style="vertical-align:top;">:</td><td><div>/</div></td></tr><tr><td style="font-weight:bold;vertical-align:top;">secure</td><td style="vertical-align:top;">:</td><td><div></div></td></tr><tr><td style="font-weight:bold;vertical-align:top;">version</td><td style="vertical-align:top;">:</td><td><div></div></td></tr></table></div></td></tr></table></div></td></tr><tr><td style="font-weight:bold;vertical-align:top;">delimiters</td><td style="vertical-align:top;">:</td><td><div><table><tr><td><div>{{</div></td></tr><tr><td><div>}}</div></td></tr></table></div></td></tr><tr><td style="font-weight:bold;vertical-align:top;">files</td><td style="vertical-align:top;">:</td><td><div><table></table></div></td></tr><tr><td style="font-weight:bold;vertical-align:top;">flash</td><td style="vertical-align:top;">:</td><td><div>Commets</div></td></tr><tr><td style="font-weight:bold;vertical-align:top;">form_label_separator</td><td style="vertical-align:top;">:</td><td><div></div></td></tr><tr><td style="font-weight:bold;vertical-align:top;">formstyle</td><td style="vertical-align:top;">:</td><td><div>bootstrap3_inline</div></td></tr><tr><td style="font-weight:bold;vertical-align:top;">generic_patterns</td><td style="vertical-align:top;">:</td><td><div><table><tr><td><div>*</div></td></tr></table></div></td></tr><tr><td style="font-weight:bold;vertical-align:top;">google_analytics_id</td><td style="vertical-align:top;">:</td><td><div>None</div></td></tr><tr><td style="font-weight:bold;vertical-align:top;">headers</td><td style="vertical-align:top;">:</td><td><div><table><tr><td style="font-weight:bold;vertical-align:top;">X-Powered-By</td><td style="vertical-align:top;">:</td><td><div>web2py</div></td></tr></table></div></td></tr><tr><td style="font-weight:bold;vertical-align:top;">logo</td><td style="vertical-align:top;">:</td><td><div><h5><a class="navbar-brand-name" data-target="#index" href="/cvrf/default/index.load" id="index"><img class="logo" src="/cvrf/static/img/favicon.png" /></a></h5></div></td></tr><tr><td style="font-weight:bold;vertical-align:top;">menu</td><td style="vertical-align:top;">:</td><td><div><table><tr><td><div><table><tr><td><div>home</div></td></tr><tr><td><div>False</div></td></tr><tr><td><div><a data-target="#homepage" href="/cvrf/default/index.load#homepage">Inicio</a></div></td></tr></table></div></td></tr><tr><td><div><table><tr><td><div>services</div></td></tr><tr><td><div>False</div></td></tr><tr><td><div><a data-target="#services" href="/cvrf/default/index.load#services">Servicios</a></div></td></tr></table></div></td></tr><tr><td><div><table><tr><td><div>about</div></td></tr><tr><td><div>False</div></td></tr><tr><td><div><a data-target="#about" href="/cvrf/default/index.load#about">Acerca de</a></div></td></tr></table></div></td></tr><tr><td><div><table><tr><td><div>information</div></td></tr><tr><td><div>False</div></td></tr><tr><td><div><a data-target="#information" href="/cvrf/default/index.load#information">Contact us</a></div></td></tr></table></div></td></tr><tr><td><div><table><tr><td><div>Administration</div></td></tr><tr><td><div>False</div></td></tr><tr><td><div>/cvrf/default/dashboard.load</div></td></tr><tr><td><div><table><tr><td><div><table><tr><td><div>user_roles</div></td></tr><tr><td><div>False</div></td></tr><tr><td><div><a data-target="#user_roles" href="/cvrf/admin/user_roles.load"><ico class="glyphicon glyphicon-user"></ico> Users</a></div></td></tr></table></div></td></tr><tr><td><div><table><tr><td><div>website</div></td></tr><tr><td><div>False</div></td></tr><tr><td><div><a data-target="#website" href="/cvrf/admin/website.load"><ico class="glyphicon glyphicon-home"></ico> Website</a></div></td></tr></table></div></td></tr><tr><td><div><table><tr><td><div>admin</div></td></tr><tr><td><div>False</div></td></tr><tr><td><div><a data-target="#admin" href="/cvrf/resource/admin.load"><ico class="glyphicon glyphicon-book"></ico> Resources</a></div></td></tr></table></div></td></tr><tr><td><div><table><tr><td><div>upload</div></td></tr><tr><td><div>False</div></td></tr><tr><td><div><a data-target="#upload_multiple" href="/cvrf/resource/upload_multiple.load"><ico class="glyphicon glyphicon-upload"></ico> Multiple Uploads</a></div></td></tr></table></div></td></tr><tr><td><div><table><tr><td><div>manage</div></td></tr><tr><td><div>False</div></td></tr><tr><td><div><a data-target="#manage" href="/cvrf/appadmin/index.load"><ico class="glyphicon glyphicon-lock"></ico> Appadmin</a></div></td></tr></table></div></td></tr><tr><td><div><table><tr><td><div>category</div></td></tr><tr><td><div>False</div></td></tr><tr><td><div><a data-target="#category" href="/cvrf/admin/category.load"><ico class="glyphicon glyphicon-tags"></ico> Categories</a></div></td></tr></table></div></td></tr><tr><td><div><table><tr><td><div>scheduler_task</div></td></tr><tr><td><div>False</div></td></tr><tr><td><div><a data-target="#scheduler_task" href="/cvrf/admin/scheduler_task.load"><ico class="glyphicon glyphicon-tasks"></ico> Scheduler Task</a></div></td></tr></table></div></td></tr><tr><td><div><table><tr><td><div>rtype</div></td></tr><tr><td><div>False</div></td></tr><tr><td><div><a data-target="#rtype" href="/cvrf/admin/table.load/rtype"><ico class="glyphicon glyphicon-tag"></ico> Types</a></div></td></tr></table></div></td></tr><tr><td><div><table><tr><td><div>language</div></td></tr><tr><td><div>False</div></td></tr><tr><td><div><a data-target="#language" href="/cvrf/resource/admin_table.load/language"><ico class="glyphicon glyphicon-flag"></ico> Language</a></div></td></tr></table></div></td></tr></table></div></td></tr></table></div></td></tr><tr><td><div><table><tr><td><div>Edition</div></td></tr><tr><td><div>False</div></td></tr><tr><td><div>/cvrf/default/dashboard.load</div></td></tr><tr><td><div><table><tr><td><div><table><tr><td><div>admin_news</div></td></tr><tr><td><div>False</div></td></tr><tr><td><div><a data-target="#admin_news" href="/cvrf/blog/admin_news.load"><ico class="glyphicon glyphicon-envelope"></ico> Administrar noticias</a></div></td></tr></table></div></td></tr><tr><td><div><table><tr><td><div>admin_forum</div></td></tr><tr><td><div>False</div></td></tr><tr><td><div><a data-target="#admin_forum" href="/cvrf/forum/admin_forum.load"><ico class="glyphicon glyphicon-comment"></ico> Administrar foro</a></div></td></tr></table></div></td></tr></table></div></td></tr></table></div></td></tr><tr><td><div><table><tr><td><div>Resource</div></td></tr><tr><td><div>False</div></td></tr><tr><td><div>/cvrf/default/dashboard.load</div></td></tr><tr><td><div><table><tr><td><div><table><tr><td><div>dashboard</div></td></tr><tr><td><div>False</div></td></tr><tr><td><div><a data-target="#dashboard" href="/cvrf/default/dashboard.load"><ico class="glyphicon glyphicon-home"></ico> Dashboard</a></div></td></tr></table></div></td></tr><tr><td><div><table><tr><td><div>upload</div></td></tr><tr><td><div>False</div></td></tr><tr><td><div><a data-target="#edites" href="/cvrf/resource/edites.load"><ico class="glyphicon glyphicon-upload"></ico> Upload and edit</a></div></td></tr></table></div></td></tr><tr><td><div><table><tr><td><div>resources</div></td></tr><tr><td><div>False</div></td></tr><tr><td><div><a data-target="#my_briefcase" href="/cvrf/resource/my_briefcase.load"><ico class="glyphicon glyphicon-briefcase"></ico> Mi malet\xc3\xadn</a></div></td></tr></table></div></td></tr><tr><td><div><table><tr><td><div>revised</div></td></tr><tr><td><div>False</div></td></tr><tr><td><div><a data-target="#revised" href="/cvrf/resource/revised.load"><ico class="glyphicon glyphicon-book"></ico> To Revised</a></div></td></tr></table></div></td></tr><tr><td><div><table><tr><td><div>publisher</div></td></tr><tr><td><div>False</div></td></tr><tr><td><div><a data-target="#publisher" href="/cvrf/resource/admin_table.load/publisher"><ico class="glyphicon glyphicon-edit"></ico> Publisher</a></div></td></tr></table></div></td></tr><tr><td><div><table><tr><td><div>publish</div></td></tr><tr><td><div>False</div></td></tr><tr><td><div><a data-target="#publish" href="/cvrf/resource/publish.load"><ico class="glyphicon glyphicon-leaf"></ico> To Published</a></div></td></tr></table></div></td></tr></table></div></td></tr></table></div></td></tr></table></div></td></tr><tr><td style="font-weight:bold;vertical-align:top;">meta</td><td style="vertical-align:top;">:</td><td><div><table><tr><td style="font-weight:bold;vertical-align:top;">author</td><td style="vertical-align:top;">:</td><td><div>ysantalla@upr.edu.cu</div></td></tr><tr><td style="font-weight:bold;vertical-align:top;">description</td><td style="vertical-align:top;">:</td><td><div>FASDF</div></td></tr><tr><td style="font-weight:bold;vertical-align:top;">generator</td><td style="vertical-align:top;">:</td><td><div>Web2py Web Framework</div></td></tr><tr><td style="font-weight:bold;vertical-align:top;">keywords</td><td style="vertical-align:top;">:</td><td><div>FSDF</div></td></tr></table></div></td></tr><tr><td style="font-weight:bold;vertical-align:top;">models_to_run</td><td style="vertical-align:top;">:</td><td><div><table><tr><td><div>^\\w+\\.py$</div></td></tr><tr><td><div>^forum/\\w+\\.py$</div></td></tr><tr><td><div>^forum/comments/\\w+\\.py$</div></td></tr></table></div></td></tr><tr><td style="font-weight:bold;vertical-align:top;">postprocessing</td><td style="vertical-align:top;">:</td><td><div><table></table></div></td></tr><tr><td style="font-weight:bold;vertical-align:top;">session_client</td><td style="vertical-align:top;">:</td><td><div>127.0.0.1</div></td></tr><tr><td style="font-weight:bold;vertical-align:top;">session_cookie_compression_level</td><td style="vertical-align:top;">:</td><td><div>None</div></td></tr><tr><td style="font-weight:bold;vertical-align:top;">session_cookie_expires</td><td style="vertical-align:top;">:</td><td><div>None</div></td></tr><tr><td style="font-weight:bold;vertical-align:top;">session_data_name</td><td style="vertical-align:top;">:</td><td><div>session_data_cvrf</div></td></tr><tr><td style="font-weight:bold;vertical-align:top;">session_db_record_id</td><td style="vertical-align:top;">:</td><td><div>35L</div></td></tr><tr><td style="font-weight:bold;vertical-align:top;">session_db_table</td><td style="vertical-align:top;">:</td><td><div>&lt;Table web2py_session_cvrf (id, locked, client_ip, created_datetime, modified_datetime, unique_key, session_data)&gt;</div></td></tr><tr><td style="font-weight:bold;vertical-align:top;">session_db_unique_key</td><td style="vertical-align:top;">:</td><td><div>6b99a1e9-2e71-4290-bca5-6864b4971f38</div></td></tr><tr><td style="font-weight:bold;vertical-align:top;">session_hash</td><td style="vertical-align:top;">:</td><td><div>83dab2e48b9b166cf458ac349013c781</div></td></tr><tr><td style="font-weight:bold;vertical-align:top;">session_id</td><td style="vertical-align:top;">:</td><td><div>35:6b99a1e9-2e71-4290-bca5-6864b4971f38</div></td></tr><tr><td style="font-weight:bold;vertical-align:top;">session_id_name</td><td style="vertical-align:top;">:</td><td><div>session_id_cvrf</div></td></tr><tr><td style="font-weight:bold;vertical-align:top;">session_masterapp</td><td style="vertical-align:top;">:</td><td><div>cvrf</div></td></tr><tr><td style="font-weight:bold;vertical-align:top;">session_new</td><td style="vertical-align:top;">:</td><td><div>False</div></td></tr><tr><td style="font-weight:bold;vertical-align:top;">session_storage_type</td><td style="vertical-align:top;">:</td><td><div>db</div></td></tr><tr><td style="font-weight:bold;vertical-align:top;">status</td><td style="vertical-align:top;">:</td><td><div>200</div></td></tr><tr><td style="font-weight:bold;vertical-align:top;">subtitle</td><td style="vertical-align:top;">:</td><td><div>FASDF</div></td></tr><tr><td style="font-weight:bold;vertical-align:top;">title</td><td style="vertical-align:top;">:</td><td><div> | UPR</div></td></tr><tr><td style="font-weight:bold;vertical-align:top;">view</td><td style="vertical-align:top;">:</td><td><div>forum/comments.load</div></td></tr></table></div>'
tRp115
sS'locals'
p116
(dp117
S'__category'
p118
S'<function __category>'
p119
sS'Service'
p120
S"<class 'gluon.tools.Service'>"
p121
sS'OBJECT'
p122
S"<class 'gluon.html.OBJECT'>"
p123
sS'SQLDB'
p124
S"<class 'pydal.base.DAL'>"
p125
sS'__photo'
p126
S'<function __photo>'
p127
sg108
S"<Storage {'_formkey[forum_comment/create]': ['cc...gin]': ['e95e4e61-6362-4a52-9e44-858802821e38']}>"
p128
sS'LINK'
p129
S"<class 'gluon.html.LINK'>"
p130
sS'db_task'
p131
S'<DAL uri="sqlite://storage.sqlite_task">'
p132
sS'BR'
p133
S"<class 'gluon.html.BR'>"
p134
sS'local_import'
p135
S'<function <lambda>>'
p136
sS'OPTGROUP'
p137
S"<class 'gluon.html.OPTGROUP'>"
p138
sS'__package__'
p139
S'None'
p140
sS'PRE'
p141
S"<class 'gluon.html.PRE'>"
p142
sS'IS_INT_IN_RANGE'
p143
S"<class 'gluon.validators.IS_INT_IN_RANGE'>"
p144
sS'IS_LOWER'
p145
S"<class 'gluon.validators.IS_LOWER'>"
p146
sS'IS_STRONG'
p147
S"<class 'gluon.validators.IS_STRONG'>"
p148
sS'cache'
p149
S'<gluon.cache.Cache object>'
p150
sS'IS_IN_DB'
p151
S"<class 'gluon.validators.IS_IN_DB'>"
p152
sS'TAG'
p153
S'<gluon.html.__TAG__ object>'
p154
sS'Scheduler'
p155
S"<class 'gluon.scheduler.Scheduler'>"
p156
sS'SQLField'
p157
S"<class 'pydal.objects.Field'>"
p158
sS'mail'
p159
S'<gluon.tools.Mail object>'
p160
sS'BODY'
p161
S"<class 'gluon.html.BODY'>"
p162
sS'IS_DATE_IN_RANGE'
p163
S"<class 'gluon.validators.IS_DATE_IN_RANGE'>"
p164
sS'IFRAME'
p165
S"<class 'gluon.html.IFRAME'>"
p166
sS'admin_notifications'
p167
S'<function admin_notifications>'
p168
sS'URL'
p169
S'<function URL>'
p170
sS'__file__'
p171
S"'/opt/python/web2py/web2py/applications/cvrf/views/forum/comments.load'"
p172
sS'db'
p173
S'<DAL uri="sqlite://storage.sqlite1">'
p174
sS'auth'
p175
S'<gluon.tools.Auth object>'
p176
sS'P'
S"<class 'gluon.html.P'>"
p177
sS'TFOOT'
p178
S"<class 'gluon.html.TFOOT'>"
p179
sS'scheduler'
p180
S'<Scheduler(Thread-39, initial daemon)>'
p181
sS'XHTML'
p182
S"<class 'gluon.html.XHTML'>"
p183
sS'datetime'
p184
S"<type 'datetime.datetime'>"
p185
sS'ON'
p186
S'True'
p187
sS'OL'
p188
S"<class 'gluon.html.OL'>"
p189
sS'revisor_notifications'
p190
S'<function revisor_notifications>'
p191
sS'TEXTAREA'
p192
S"<class 'gluon.html.TEXTAREA'>"
p193
sS'MENU'
p194
S"<class 'gluon.html.MENU'>"
p195
sS'ldap_auth'
p196
S'<function ldap_auth>'
p197
sS'IS_IMAGE'
p198
S"<class 'gluon.validators.IS_IMAGE'>"
p199
sS'email_auth'
p200
S'<function email_auth>'
p201
sS'EM'
p202
S"<class 'gluon.html.EM'>"
p203
sS'CODE'
p204
S"<class 'gluon.html.CODE'>"
p205
sS'HTTP'
p206
S"<class 'gluon.http.HTTP'>"
p207
sS'HR'
p208
S"<class 'gluon.html.HR'>"
p209
sS'IS_DATETIME'
p210
S"<class 'gluon.validators.IS_DATETIME'>"
p211
sS'STYLE'
p212
S"<class 'gluon.html.STYLE'>"
p213
sS'LABEL'
p214
S"<class 'gluon.html.LABEL'>"
p215
sS'CLEANUP'
p216
S"<class 'gluon.validators.CLEANUP'>"
p217
sS'plugins'
p218
S'<gluon.tools.PluginManager object>'
p219
sS'SELECT'
p220
S"<class 'gluon.html.SELECT'>"
p221
sS'CENTER'
p222
S"<class 'gluon.html.CENTER'>"
p223
sS'prettydate'
p224
S'<function prettydate>'
p225
sS'foroCommentInsert'
p226
S'<function foroCommentInsert>'
p227
sS'Auth'
p228
S"<class 'gluon.tools.Auth'>"
p229
sS'current'
p230
S'<thread._local object>'
p231
sS'__builtins__'
p232
S"{'ArithmeticError': <type 'exceptions.ArithmeticError'>, 'AssertionError': <type 'exceptions.AssertionError'>, 'AttributeError': <type 'exceptions.AttributeError'>, 'BaseException': <type 'exceptions.BaseException'>, 'BufferError': <type 'exceptions.BufferError'>, 'BytesWarning': <type 'exceptions.BytesWarning'>, 'DeprecationWarning': <type 'exceptions.DeprecationWarning'>, 'EOFError': <type 'exceptions.EOFError'>, 'Ellipsis': Ellipsis, 'EnvironmentError': <type 'exceptions.EnvironmentError'>, ...}"
p233
sS'HTML'
p234
S"<class 'gluon.html.HTML'>"
p235
sS'SQLFORM'
p236
S"<class 'gluon.sqlhtml.SQLFORM'>"
p237
sS'LOAD'
p238
S'<function LOAD>'
p239
sS'redirect'
p240
S'<function redirect>'
p241
sS'FIELDSET'
p242
S"<class 'gluon.html.FIELDSET'>"
p243
sS'websiteUpdateBefore'
p244
S'<function websiteUpdateBefore>'
p245
sS'IS_EQUAL_TO'
p246
S"<class 'gluon.validators.IS_EQUAL_TO'>"
p247
sS'PAGINATE'
p248
S'5L'
p249
sS'embed64'
p250
S'<function embed64>'
p251
sS'IS_LIST_OF'
p252
S"<class 'gluon.validators.IS_LIST_OF'>"
p253
sS'__name__'
p254
S"'__restricted__'"
p255
sS'EMBED'
p256
S"<class 'gluon.html.EMBED'>"
p257
sS'_'
S'<function _>'
p258
sS'myconf'
p259
S"{'forms': {'formstyle': 'bootstrap3_inline', 'se...: 'sqlite://storage.sqlite1', 'pool_size': '10'}}"
p260
sS'H2'
p261
S"<class 'gluon.html.H2'>"
p262
sS'H3'
p263
S"<class 'gluon.html.H3'>"
p264
sS'BUTTON'
p265
S"<class 'gluon.html.BUTTON'>"
p266
sS'H1'
p267
S"<class 'gluon.html.H1'>"
p268
sS'H6'
p269
S"<class 'gluon.html.H6'>"
p270
sS'H4'
p271
S"<class 'gluon.html.H4'>"
p272
sS'H5'
p273
S"<class 'gluon.html.H5'>"
p274
sS'UL'
p275
S"<class 'gluon.html.UL'>"
p276
sS'IS_UPPER'
p277
S"<class 'gluon.validators.IS_UPPER'>"
p278
sS'xmlescape'
p279
S'<function xmlescape>'
p280
sS'timed'
p281
S"<type 'datetime.timedelta'>"
p282
sS'IS_TIME'
p283
S"<class 'gluon.validators.IS_TIME'>"
p284
sS'os'
p285
S"<module 'os' from '/usr/lib/python2.7/os.pyc'>"
p286
sS'comment'
p287
S"<Row {'modified_by': 3L, 'forum': 1L, 'text': '<...ime.datetime(2017, 3, 23, 19, 10, 35), 'id': 1L}>"
p288
sS'OPTION'
p289
S"<class 'gluon.html.OPTION'>"
p290
sS'TITLE'
p291
S"<class 'gluon.html.TITLE'>"
p292
sS'CRYPT'
p293
S"<class 'gluon.validators.CRYPT'>"
p294
sS'IS_EMPTY_OR'
p295
S"<class 'gluon.validators.IS_EMPTY_OR'>"
p296
sS'MARKMIN'
p297
S"<class 'gluon.html.MARKMIN'>"
p298
sS'ASSIGNJS'
p299
S'<function ASSIGNJS>'
p300
sS'INPUT'
p301
S"<class 'gluon.html.INPUT'>"
p302
sS'STRONG'
p303
S"<class 'gluon.html.STRONG'>"
p304
sS'COL'
p305
S"<class 'gluon.html.COL'>"
p306
sS'service'
p307
S'<gluon.tools.Service object>'
p308
sS'SCRIPT'
p309
S"<class 'gluon.html.SCRIPT'>"
p310
sS'PRODUCTION_MENU'
p311
g187
sS'TABLE'
p312
S"<class 'gluon.html.TABLE'>"
p313
sS'IS_IPV4'
p314
S"<class 'gluon.validators.IS_IPV4'>"
p315
sS'IS_LENGTH'
p316
S"<class 'gluon.validators.IS_LENGTH'>"
p317
sS'IS_IPV6'
p318
S"<class 'gluon.validators.IS_IPV6'>"
p319
sS'XML'
p320
S"<class 'gluon.html.XML'>"
p321
sS'B'
S"<class 'gluon.html.B'>"
p322
sS'IMG'
p323
S"<class 'gluon.html.IMG'>"
p324
sS'SQLTABLE'
p325
S"<class 'gluon.sqlhtml.SQLTABLE'>"
p326
sS'IS_MATCH'
p327
S"<class 'gluon.validators.IS_MATCH'>"
p328
sS'IS_ALPHANUMERIC'
p329
S"<class 'gluon.validators.IS_ALPHANUMERIC'>"
p330
sS'count'
p331
S'11'
p332
sS'SPAN'
p333
S"<class 'gluon.html.SPAN'>"
p334
sS'IS_JSON'
p335
S"<class 'gluon.validators.IS_JSON'>"
p336
sS'IS_IPADDRESS'
p337
S"<class 'gluon.validators.IS_IPADDRESS'>"
p338
sS'IS_SLUG'
p339
S"<class 'gluon.validators.IS_SLUG'>"
p340
sS'BEAUTIFY'
p341
S"<class 'gluon.html.BEAUTIFY'>"
p342
sS'META'
p343
S"<class 'gluon.html.META'>"
p344
sS'KEY'
p345
S"'SAYASPER23YAS'"
p346
sS'k'
S"'FSDF'"
p347
sS'website'
p348
S"<Row {'is_enabled': True, 'modified_by': 3L, 'de..., 3, 20, 11, 38, 33), 'id': 2L, 'name': 'FASDF'}>"
p349
sS'IS_DATE'
p350
S"<class 'gluon.validators.IS_DATE'>"
p351
sS'IS_EMAIL'
p352
S"<class 'gluon.validators.IS_EMAIL'>"
p353
sS'IS_NOT_EMPTY'
p354
S"<class 'gluon.validators.IS_NOT_EMPTY'>"
p355
sS'IS_FLOAT_IN_RANGE'
p356
S"<class 'gluon.validators.IS_FLOAT_IN_RANGE'>"
p357
sS'TBODY'
p358
S"<class 'gluon.html.TBODY'>"
p359
sS'CAT'
p360
S"<class 'gluon.html.CAT'>"
p361
sS'Field'
p362
S"<class 'pydal.objects.Field'>"
p363
sS'IS_LIST_OF_EMAILS'
p364
S"<class 'gluon.validators.IS_LIST_OF_EMAILS'>"
p365
sS'DIV'
p366
S"<class 'gluon.html.DIV'>"
p367
sS'LEGEND'
p368
S"<class 'gluon.html.LEGEND'>"
p369
sS'comments'
p370
S'<Rows (11)>'
p371
sS'form'
p372
S'<gluon.sqlhtml.SQLFORM object>'
p373
sS'COLGROUP'
p374
S"<class 'gluon.html.COLGROUP'>"
p375
sS'DAL'
p376
S"<class 'pydal.base.DAL'>"
p377
sS'TT'
p378
S"<class 'gluon.html.TT'>"
p379
sS'TR'
p380
S"<class 'gluon.html.TR'>"
p381
sS'LI'
p382
S"<class 'gluon.html.LI'>"
p383
sS'TH'
p384
S"<class 'gluon.html.TH'>"
p385
sS'AppConfig'
p386
S'<function AppConfig>'
p387
sS'TD'
p388
S"<class 'gluon.html.TD'>"
p389
sS'PluginManager'
p390
S"<class 'gluon.tools.PluginManager'>"
p391
sS'IS_URL'
p392
S"<class 'gluon.validators.IS_URL'>"
p393
sS'A'
S"<class 'gluon.html.A'>"
p394
sS'HEAD'
p395
S"<class 'gluon.html.HEAD'>"
p396
sS'IS_DATETIME_IN_RANGE'
p397
S"<class 'gluon.validators.IS_DATETIME_IN_RANGE'>"
p398
sS'FORM'
p399
S"<class 'gluon.html.FORM'>"
p400
sS'I'
S"<class 'gluon.html.I'>"
p401
sS'IS_NOT_IN_DB'
p402
S"<class 'gluon.validators.IS_NOT_IN_DB'>"
p403
sS'websiteInsertBefore'
p404
S'<function websiteInsertBefore>'
p405
sg114
S"<Storage {'body': <cStringIO.StringO object at 0..., session_data)>, 'view': 'forum/comments.load'}>"
p406
sS'THEAD'
p407
S"<class 'gluon.html.THEAD'>"
p408
sS'ANY_OF'
p409
S"<class 'gluon.validators.ANY_OF'>"
p410
sS'IS_NULL_OR'
p411
S"<class 'gluon.validators.IS_EMPTY_OR'>"
p412
sg56
S"<Storage {'_vars': <Storage {'_signature': '36c2... '/opt/python/web2py/web2py/applications/cvrf/'}>"
p413
sS'IS_EXPR'
p414
S"<class 'gluon.validators.IS_EXPR'>"
p415
sS'T'
S'<gluon.languages.translator object>'
p416
sS'IS_IN_SET'
p417
S"<class 'gluon.validators.IS_IN_SET'>"
p418
sS'IS_UPLOAD_FILENAME'
p419
S"<class 'gluon.validators.IS_UPLOAD_FILENAME'>"
p420
sS'entry'
p421
S"<Row {'is_enabled': True, 'modified_by': 3L, 'de...etime.datetime(2017, 3, 24, 9, 48, 3), 'id': 1L}>"
p422
sS'user_notifications'
p423
S'<function user_notifications>'
p424
sS'IS_DECIMAL_IN_RANGE'
p425
S"<class 'gluon.validators.IS_DECIMAL_IN_RANGE'>"
p426
sssS'traceback'
p427
S'Traceback (most recent call last):\n  File "/opt/python/web2py/web2py/gluon/restricted.py", line 227, in restricted\n    exec ccode in environment\n  File "/opt/python/web2py/web2py/applications/cvrf/views/forum/comments.load", line 23, in <module>\n    {{for comment in comments:}}\nNameError: name \'i\' is not defined\n'
p428
s.