(dp1
S'output'
p2
S"<type 'exceptions.NameError'> name 'website' is not defined"
p3
sS'layer'
p4
S'/opt/python/web2py-files/web2py/applications/cvrfv14/views/default/index.html'
p5
sS'code'
p6
S'response.write(\'<!DOCTYPE html>\\n<!--[if (gt IE 9)|!(IE)]><!--> <html class="no-js" lang="\', escape=False)\nresponse.write(T.accepted_language or \'en\')\nresponse.write(\'"> <!--<![endif]-->\\n  <head>\\n    <meta charset="utf-8">\\n    <!-- www.phpied.com/conditional-comments-block-downloads/ -->\\n    <!-- Always force latest IE rendering engine\\n         (even in intranet) & Chrome Frame\\n         Remove this if you use the .htaccess -->\\n    <meta http-equiv="X-UA-Compatible" content="IE=edge\', escape=False)\nresponse.write(not request.is_local and \',chrome=1\' or \'\')\nresponse.write(\'">\\n    <!--  Mobile Viewport Fix\\n          j.mp/mobileviewport & davidbcalhoun.com/2010/viewport-metatag\\n          device-width: Occupy full width of the screen in its current orientation\\n          initial-scale = 1.0 retains dimensions instead of zooming out if page height > device height\\n          user-scalable = yes allows the user to zoom in -->\\n    <meta name="viewport" content="width=device-width, initial-scale=1.0">\\n    <title>\', escape=False)\nresponse.write(response.title or request.application)\nresponse.write(\'</title>\\n    <!-- http://dev.w3.org/html5/markup/meta.name.html -->\\n    <meta name="application-name" content="\', escape=False)\nresponse.write(request.application)\nresponse.write(\'">\\n    <!-- Speaking of Google, don\\\'t forget to set your site up:\\n         http://google.com/webmasters -->\\n    <meta name="google-site-verification" content="">\\n    <!-- include stylesheets -->\\n\\n    <link rel="stylesheet" href="\', escape=False)\nresponse.write(URL(\'static\',\'css/bootstrap.min.css\'))\nresponse.write(\'"/>\\n    <link rel="stylesheet" href="\', escape=False)\nresponse.write(URL(\'static\',\'css/mdb.min.css\'))\nresponse.write(\'">\\n    <link rel="stylesheet" href="\', escape=False)\nresponse.write(URL(\'static\',\'css/style.css\'))\nresponse.write(\'">\\n\\n    <link rel="shortcut icon" href="\', escape=False)\nresponse.write(URL(\'static\',\'img/favicon.ico\'))\nresponse.write(\'" type="image/x-icon">\\n    <link rel="apple-touch-icon" href="\', escape=False)\nresponse.write(URL(\'static\',\'img/favicon.png\'))\nresponse.write(\'">\\n    <!-- All JavaScript at the bottom, except for Modernizr which enables\\n         HTML5 elements & feature detects -->\\n\\n    <!--[if lt IE 9]>\\n        <script src="\', escape=False)\nresponse.write(URL(\'static\',\'js/respond-1.4.2.min.js\'))\nresponse.write(\'"></script>\\n        <![endif]-->\\n    <!-- Favicons -->\\n  </head>\\n  <body style="padding-top: 0px;">\\n\\n    <!--Mask-->\\n    <div class="view hm-black-strong">\\n        <div class="full-bg-img">\\n            <div class="container-fluid" style="padding: 15%;">\\n                <ul>\\n                    <li>\\n                        <h1 class="h1-responsive wow fadeInDown" data-wow-delay="0.2s">\', escape=False)\nresponse.write(T(\'Comunidad Virtual de Recursos Forestales\'))\nresponse.write(\'</h1></li>\\n                    <li>\\n                        <h2 class="wow fadeInDown">\', escape=False)\nresponse.write(T("Compartiendo la informaci\xc3\xb3n forestal"))\nresponse.write(\'</h2>\\n                    </li>\\n                    <li>\\n                        <a href="\', escape=False)\nresponse.write(URL())\nresponse.write(\'#about" class="btn btn-default btn-lg wow fadeInRight" data-wow-delay="0.2s">\', escape=False)\nresponse.write(T("\xc2\xbfQu\xc3\xa9 hacemos?"))\nresponse.write(\'</a>\\n                    </li>\\n                </ul>\\n            </div>\\n        </div>\\n    </div>\\n    <!--/.Mask-->\\n\\n    <!-- Main container-->\\n    <div class="container-fluid">\\n\\n        <div class="divider-new">\\n            <h2 class="h2-responsive wow bounceIn">About us</h2>\\n        </div>\\n\\n        <!--Section: About-->\\n        <section id="about" class="text-xs-center wow bounceIn" data-wow-delay="0.2s">\\n\\n            <p>Lorem ipsum dolor sit amet, consectetur adipisicing elit. Velit explicabo assumenda eligendi ex exercitationem harum deleniti quaerat beatae ducimus dolor voluptates magnam, reiciendis pariatur culpa tempore quibusdam quidem, saepe eius.</p>\\n            <p>Lorem ipsum dolor sit amet, consectetur adipisicing elit. Velit explicabo assumenda eligendi ex exercitationem harum deleniti quaerat beatae ducimus dolor voluptates magnam, reiciendis pariatur culpa tempore quibusdam quidem, saepe eius.</p>\\n\\n        </section>\\n        <!--Section: About-->\\n\\n        <div class="divider-new">\\n            <h2 class="h2-responsive wow fadeInDown">Best features</h2>\\n        </div>\\n\\n        <!--Section: Best features-->\\n        <section id="best-features">\\n\\n            <div class="row">\\n\\n                <!--First columnn-->\\n                <div class="col-md-3">\\n                    <!--Card-->\\n                    <div class="card wow fadeInUp">\\n\\n                        <!--Card image-->\\n                        <div class="view overlay hm-white-slight">\\n                            <img src="http://mdbootstrap.com/images/regular/city/img%20(2).jpg" class="img-fluid" alt="">\\n                            <a>\\n                                <div class="mask"></div>\\n                            </a>\\n                        </div>\\n                        <!--/.Card image-->\\n\\n                        <!--Card content-->\\n                        <div class="card-block text-xs-center">\\n                            <!--Title-->\\n                            <h4 class="card-title">Card title</h4>\\n                            <hr>\\n                            <!--Text-->\\n                            <p class="card-text">Lorem ipsum dolor sit amet, consectetur adipisicing elit. Provident fuga animi architecto dolores dicta cum quo velit.</p>\\n                        </div>\\n                        <!--/.Card content-->\\n\\n                    </div>\\n                    <!--/.Card-->\\n                </div>\\n                <!--First columnn-->\\n\\n                <!--Second columnn-->\\n                <div class="col-md-3">\\n                    <!--Card-->\\n                    <div class="card wow fadeInUp" data-wow-delay="0.2s">\\n\\n                        <!--Card image-->\\n                        <div class="view overlay hm-white-slight">\\n                            <img src="http://mdbootstrap.com/images/regular/city/img%20(3).jpg" class="img-fluid" alt="">\\n                            <a>\\n                                <div class="mask"></div>\\n                            </a>\\n                        </div>\\n                        <!--/.Card image-->\\n\\n                        <!--Card content-->\\n                        <div class="card-block text-xs-center">\\n                            <!--Title-->\\n                            <h4 class="card-title">Card title</h4>\\n                            <hr>\\n                            <!--Text-->\\n                            <p class="card-text">Lorem ipsum dolor sit amet, consectetur adipisicing elit. Provident fuga animi architecto dolores dicta cum quo velit.</p>\\n                        </div>\\n                        <!--/.Card content-->\\n\\n                    </div>\\n                    <!--/.Card-->\\n                </div>\\n                <!--Second columnn-->\\n\\n                <!--Third columnn-->\\n                <div class="col-md-3">\\n                    <!--Card-->\\n                    <div class="card wow fadeInUp" data-wow-delay="0.4s">\\n\\n                        <!--Card image-->\\n                        <div class="view overlay hm-white-slight">\\n                            <img src="http://mdbootstrap.com/images/regular/city/img%20(4).jpg" class="img-fluid" alt="">\\n                            <a>\\n                                <div class="mask"></div>\\n                            </a>\\n                        </div>\\n                        <!--/.Card image-->\\n\\n                        <!--Card content-->\\n                        <div class="card-block text-xs-center">\\n                            <!--Title-->\\n                            <h4 class="card-title">Card title</h4>\\n                            <hr>\\n                            <!--Text-->\\n                            <p class="card-text">Lorem ipsum dolor sit amet, consectetur adipisicing elit. Provident fuga animi architecto dolores dicta cum quo velit.</p>\\n                        </div>\\n                        <!--/.Card content-->\\n\\n                    </div>\\n                    <!--/.Card-->\\n                </div>\\n                <!--Third columnn-->\\n\\n                <!--Fourth columnn-->\\n                <div class="col-md-3">\\n                    <!--Card-->\\n                    <div class="card wow fadeInUp" data-wow-delay="0.6s">\\n\\n                        <!--Card image-->\\n                        <div class="view overlay hm-white-slight">\\n                            <img src="http://mdbootstrap.com/images/regular/city/img%20(8).jpg" class="img-fluid" alt="">\\n                            <a>\\n                                <div class="mask"></div>\\n                            </a>\\n                        </div>\\n                        <!--/.Card image-->\\n\\n                        <!--Card content-->\\n                        <div class="card-block text-xs-center">\\n                            <!--Title-->\\n                            <h4 class="card-title">Card title</h4>\\n                            <hr>\\n                            <!--Text-->\\n                            <p class="card-text">Lorem ipsum dolor sit amet, consectetur adipisicing elit. Provident fuga animi architecto dolores dicta cum quo velit.</p>\\n                        </div>\\n                        <!--/.Card content-->\\n\\n                    </div>\\n                    <!--/.Card-->\\n                </div>\\n                <!--Fourth columnn-->\\n            </div>\\n\\n        </section>\\n        <!--/Section: Best features-->\\n\\n        <div class="divider-new">\\n            <h2 class="h2-responsive wow fadeInUp">Contact us</h2>\\n        </div>\\n\\n        <!--Section: Contact-->\\n        <section id="contact">\\n            <div class="row">\\n                <!--First column-->\\n                <div class="col-md-8">\\n                    <div id="map-container" class="z-depth-1 wow fadeInUp" style="height: 300px"></div>\\n                </div>\\n                <!--/First column-->\\n\\n                <!--Second column-->\\n                <div class="col-md-4">\\n                    <ul class="text-xs-center">\\n                        <li class="wow fadeInUp" data-wow-delay="0.2s"><i class="fa fa-map-marker"></i>\\n                            <p>New York, NY 10012, USA</p>\\n                        </li>\\n\\n                        <li class="wow fadeInUp" data-wow-delay="0.3s"><i class="fa fa-phone"></i>\\n                            <p>+ 01 234 567 89</p>\\n                        </li>\\n\\n                        <li class="wow fadeInUp" data-wow-delay="0.4s"><i class="fa fa-envelope"></i>\\n                            <p>contact@mdbootstrap.com</p>\\n                        </li>\\n                    </ul>\\n                </div>\\n                <!--/Second column-->\\n            </div>\\n        </section>\\n        <!--Section: Contact-->\\n\\n    </div>\\n    <!--/ Main container-->\\n\\n\\n\\n    <!--Footer-->\\n    <footer class="page-footer">\\n\\n        <!--Footer Links-->\\n        <div class="container-fluid">\\n            <div class="row">\\n\\n                <!--First column-->\\n                <div class="col-md-3 offset-md-1">\\n                    <h5 class="title">ABOUT MATERIAL DESIGN</h5>\\n                    <p>Material Design (codenamed Quantum Paper) is a design language developed by Google. </p>\\n\\n                    <p>Material Design for Bootstrap (MDB) is a powerful Material Design UI KIT for most popular HTML, CSS, and JS framework - Bootstrap.</p>\\n                </div>\\n                <!--/.First column-->\\n\\n                <hr class="hidden-md-up">\\n\\n                <!--Second column-->\\n                <div class="col-md-2 offset-md-1">\\n                    <h5 class="title">First column</h5>\\n                    <ul>\\n                        <li><a href="#!">Link 1</a></li>\\n                        <li><a href="#!">Link 2</a></li>\\n                        <li><a href="#!">Link 3</a></li>\\n                        <li><a href="#!">Link 4</a></li>\\n                    </ul>\\n                </div>\\n                <!--/.Second column-->\\n\\n                <hr class="hidden-md-up">\\n\\n                <!--Third column-->\\n                <div class="col-md-2">\\n                    <h5 class="title">Second column</h5>\\n                    <ul>\\n                        <li><a href="#!">Link 1</a></li>\\n                        <li><a href="#!">Link 2</a></li>\\n                        <li><a href="#!">Link 3</a></li>\\n                        <li><a href="#!">Link 4</a></li>\\n                    </ul>\\n                </div>\\n                <!--/.Third column-->\\n\\n                <hr class="hidden-md-up">\\n\\n                <!--Fourth column-->\\n                <div class="col-md-2">\\n                    <h5 class="title">Third column</h5>\\n                    <ul>\\n                        <li><a href="#!">Link 1</a></li>\\n                        <li><a href="#!">Link 2</a></li>\\n                        <li><a href="#!">Link 3</a></li>\\n                        <li><a href="#!">Link 4</a></li>\\n                    </ul>\\n                </div>\\n                <!--/.Fourth column-->\\n\\n            </div>\\n        </div>\\n        <!--/.Footer Links-->\\n\\n        <hr>\\n\\n        <!--Call to action-->\\n        <div class="call-to-action">\\n            <h4>Material Design for Bootstrap</h4>\\n            <ul>\\n                <li>\\n                    <h5>Get our UI KIT for free</h5></li>\\n                <li><a target="_blank" href="http://mdbootstrap.com/getting-started/" class="btn btn-danger">Sign up!</a></li>\\n                <li><a target="_blank" href="http://mdbootstrap.com/material-design-for-bootstrap/" class="btn btn-default">Learn more</a></li>\\n            </ul>\\n        </div>\\n        <!--/.Call to action-->\\n        \\n            <footer class="footer">\\n        <div class="container">\\n            <div class="copyright pull-left">\\n              \', escape=False)\nif website:\n    response.write(\'\\n                \', escape=False)\n    response.write(XML(website.footer, sanitize=False))\n    response.write(\'\\n              \', escape=False)\n    pass\nresponse.write(\'\\n              <h3>\', escape=False)\nresponse.write(T(\'Copyright\'))\nresponse.write(\' &#169; \', escape=False)\nresponse.write(request.now.year)\nresponse.write(\'</h3>\\n            </div>\\n              <div id="poweredBy" class="pull-right">\\n                \', escape=False)\nresponse.write(T(\'Powered by\'))\nresponse.write(\'\\n                <a href="http://web2py.com/">Web2py</a>\\n              </div>\\n          </div>\\n    </footer>\\n\\n        <!--Copyright-->\\n        <div class="footer-copyright">\\n            <div class="container-fluid">\\n                <div class="copyright pull-left">\\n                  <h3>\', escape=False)\nresponse.write(T(\'Copyright\'))\nresponse.write(\' &#169; \', escape=False)\nresponse.write(request.now.year)\nresponse.write(\'</h3>\\n                </div>\\n                  <div id="poweredBy" class="pull-right">\\n                    \', escape=False)\nresponse.write(T(\'Powered by\'))\nresponse.write(\'\\n                    <a href="http://web2py.com/">Web2py</a>\\n                  </div>\\n            </div>\\n        </div>\\n        <!--/.Copyright-->\\n\\n    </footer>\\n    <!--/.Footer-->\\n\\n\\n\\n    <!-- The javascript =============================== -->\\n    <script src="\', escape=False)\nresponse.write(URL(\'static\',\'js/jquery-3.1.1.min.js\'))\nresponse.write(\'"></script>\\n    <script src="\', escape=False)\nresponse.write(URL(\'static\',\'js/bootstrap.min.js\'))\nresponse.write(\'"></script>\\n    <script src="\', escape=False)\nresponse.write(URL(\'static\',\'js/mdb.min.js\'))\nresponse.write(\'"></script>\\n    \', escape=False)\nresponse.write("\\n    <!-- Animations init-->\\n    <script>\\n        new WOW().init();\\n\\n        $(function(){\\n            $(\'ul > li > a\').click(function(event) {\\n\\n                if (location.pathname.replace(/^\\\\//,\'\') == this.pathname.replace(/^\\\\//,\'\') && location.hostname == this.hostname) {\\n                    var $target = $(this.hash);\\n                    $target = $target.length && $target || $(\'[name=\' + this.hash.slice(1) +\']\');\\n\\n                    if ($target.length) {\\n                        var targetOffset = $target.offset().top;\\n                        $(\'html,body\').animate({scrollTop: targetOffset}, 1500);\\n                        event.preventDefault();\\n                    }\\n                }\\n            });\\n        });\\n    </script>\\n  </body>\\n</html>\\n", escape=False)'
p7
sS'snapshot'
p8
(dp9
sS'traceback'
p10
S'Traceback (most recent call last):\n  File "/opt/python/web2py-files/web2py/gluon/restricted.py", line 227, in restricted\n    exec ccode in environment\n  File "/opt/python/web2py-files/web2py/applications/cvrfv14/views/default/index.html", line 30, in <module>\nNameError: name \'website\' is not defined\n'
p11
s.