(dp1
S'output'
p2
S"<type 'exceptions.AttributeError'> "
p3
sS'layer'
p4
S'/opt/python/web2py/web2py/applications/cvrf/views/resource/edites.html'
p5
sS'code'
p6
S'response.write(\'<!DOCTYPE html>\\n<!--[if (gt IE 9)|!(IE)]><!--> <html class="no-js" lang="\', escape=False)\nresponse.write(T.accepted_language or \'en\')\nresponse.write(\'"> <!--<![endif]-->\\n  <head>\\n    <meta charset="utf-8">\\n    <!-- www.phpied.com/conditional-comments-block-downloads/ -->\\n    <!-- Always force latest IE rendering engine\\n         (even in intranet) & Chrome Frame\\n         Remove this if you use the .htaccess -->\\n    <meta http-equiv="X-UA-Compatible" content="IE=edge\', escape=False)\nresponse.write(not request.is_local and \',chrome=1\' or \'\')\nresponse.write(\'">\\n    <!--  Mobile Viewport Fix\\n          j.mp/mobileviewport & davidbcalhoun.com/2010/viewport-metatag\\n          device-width: Occupy full width of the screen in its current orientation\\n          initial-scale = 1.0 retains dimensions instead of zooming out if page height > device height\\n          user-scalable = yes allows the user to zoom in -->\\n    <meta name="viewport" content="width=device-width, initial-scale=1.0">\\n    <title>\', escape=False)\nresponse.write(response.title or request.application)\nresponse.write(\'</title>\\n    <!-- http://dev.w3.org/html5/markup/meta.name.html -->\\n    <meta name="application-name" content="\', escape=False)\nresponse.write(request.application)\nresponse.write(\'">\\n    <!-- Speaking of Google, don\\\'t forget to set your site up:\\n         http://google.com/webmasters -->\\n    <meta name="google-site-verification" content="">\\n    <!-- include stylesheets -->\\n    <link rel="stylesheet" href="\', escape=False)\nresponse.write(URL(\'static\',\'css/bootstrap.min.css\'))\nresponse.write(\'"/>\\n    <link rel="stylesheet" href="\', escape=False)\nresponse.write(URL(\'static\',\'css/mdb.min.css\'))\nresponse.write(\'"/>\\n    <link rel="stylesheet" href="\', escape=False)\nresponse.write(URL(\'static\',\'css/style.css\'))\nresponse.write(\'"/>\\n    <link rel="stylesheet" href="\', escape=False)\nresponse.write(URL(\'static\',\'css/web2py-bootstrap3.css\'))\nresponse.write(\'"/>\\n    <link rel="shortcut icon" href="\', escape=False)\nresponse.write(URL(\'static\',\'img/favicon.ico\'))\nresponse.write(\'" type="image/x-icon">\\n    <link rel="apple-touch-icon" href="\', escape=False)\nresponse.write(URL(\'static\',\'img/favicon.png\'))\nresponse.write(\'">\\n    <!-- All JavaScript at the bottom, except for Modernizr which enables\\n         HTML5 elements & feature detects -->\\n    <script src="\', escape=False)\nresponse.write(URL(\'static\',\'js/modernizr-2.8.3.min.js\'))\nresponse.write(\'"></script>\\n    <!--[if lt IE 9]>\\n        <script src="\', escape=False)\nresponse.write(URL(\'static\',\'js/respond-1.4.2.min.js\'))\nresponse.write(\'"></script>\\n        <![endif]-->\\n    <!-- Favicons -->\\n    \', escape=False)\nresponse.write(\'<script type="text/javascript"><!--\\n    // These variables are used by the web2py_ajax_init function in web2py_ajax.js (which is loaded below).\\n    var w2p_ajax_confirm_message = "\', escape=False)\nresponse.write(T(\'Are you sure you want to delete this object?\'))\nresponse.write(\'";\\n    var w2p_ajax_disable_with_message = "\', escape=False)\nresponse.write(T(\'Working...\'))\nresponse.write(\'";\\n    var w2p_ajax_date_format = "\', escape=False)\nresponse.write(T(\'%Y-%m-%d\'))\nresponse.write(\'";\\n    var w2p_ajax_datetime_format = "\', escape=False)\nresponse.write(T(\'%Y-%m-%d %H:%M:%S\'))\nresponse.write(\'";\\n    var ajax_error_500 = \\\'\', escape=False)\nresponse.write(T.M(\'An error occured, please [[reload %s]] the page\') % URL(args=request.args, vars=request.get_vars))\nresponse.write("\'\\n    //--></script>\\n", escape=False)\nresponse.files.insert(0,URL(\'static\',\'js/jquery-3.1.1.min.js\'))\nresponse.files.insert(1,URL(\'static\',\'css/calendar.css\'))\nresponse.files.insert(2,URL(\'static\',\'js/calendar.js\'))\nresponse.files.insert(3,URL(\'static\',\'js/web2py.js\'))\nresponse.include_meta()\nresponse.include_files()\nresponse.write(\'\\n\', escape=False)\nresponse.write(\' <!-- this includes jquery.js, calendar.js/.css and web2py.js -->\\n    \', escape=False)\nresponse.write(\'\\n\', escape=False)\nresponse.write(\'\\n<link href="\', escape=False)\nresponse.write(URL(\'static\', \'css/summernote/summernote.css\'))\nresponse.write(\'" rel="stylesheet" type="text/css" />\\n<link href="\', escape=False)\nresponse.write(URL(\'static\', \'css/font-awesome.min.css\'))\nresponse.write(\'" rel="stylesheet" type="text/css" />\\n\\n<style>\\n    .fileinput-button {\\n      position: relative;\\n      overflow: hidden;\\n      display: inline-block;\\n    }\\n    .fileinput-button input {\\n      position: absolute;\\n      top: 0;\\n      right: 0;\\n      margin: 0;\\n      opacity: 0;\\n      -ms-filter: \\\'alpha(opacity=0)\\\';\\n      font-size: 200px;\\n      direction: ltr;\\n      cursor: pointer;\\n    }\\n\\n    #files li{\\n        padding: 4px;\\n    }\\n\\n    /* Fixes for IE < 8 */\\n    @media screen\\\\9 {\\n      .fileinput-button input {\\n        filter: alpha(opacity=0);\\n        font-size: 100%;\\n        height: 100%;\\n      }\\n    }\\n</style>\\n\\n<script src=\\\'\', escape=False)\nresponse.write(URL("static","js/vendor/jquery.ui.widget.js"))\nresponse.write("\'></script>\\n<script src=\'", escape=False)\nresponse.write(URL("static","js/vendor/jquery.iframe-transport.js"))\nresponse.write("\'></script>\\n<script src=\'", escape=False)\nresponse.write(URL("static","js/vendor/jquery.fileupload.js"))\nresponse.write("\'></script>\\n\\n", escape=False)\nresponse.write(\'\\n    \', escape=False)\n# using sidebars need to know what sidebar you want to use\nmc0 = \'col-md-12\'\nmc1 = \'col-md-9\'\nmc2 = \'col-md-6\'\nleft_sidebar_enabled = globals().get(\'left_sidebar_enabled\', False)\nright_sidebar_enabled = globals().get(\'right_sidebar_enabled\', False)\nmiddle_column = {0: mc0, 1: mc1, 2: mc2}[\n(left_sidebar_enabled and 1 or 0)+(right_sidebar_enabled and 1 or 0)]\nresponse.write(\'\\n  </head>\\n  <body id="\', escape=False)\nif request.function == \'admin_table\':\n    response.write(request.args(0))\nelse:\n    response.write(request.function)\n    pass\nresponse.write(\'" data-spy="scroll" data-target="#navbar-repository">\\n    <!--[if lt IE 8]><p class="browserupgrade">You are using an <strong>outdated</strong> browser. Please <a href="http://browsehappy.com/">upgrade your browser</a> to improve your experience.</p><![endif]-->\\n    <div class="w2p_flash alert alert-dismissable">\', escape=False)\nresponse.write(response.flash or \'\')\nresponse.write(\'</div>\\n    <!-- Navbar ======================================= -->\\n    <nav class="navbar navbar-default navbar-fixed-top scrolling-navbar" role="navigation">\\n      <div class="container-fluid">\\n        <div class="navbar-header">\\n          <button type="button" class="navbar-toggle" data-toggle="collapse" data-target=".navbar-collapse">\\n            <span class="sr-only">Toggle navigation</span>\\n            <span class="icon-bar"></span>\\n            <span class="icon-bar"></span>\\n            <span class="icon-bar"></span>\\n          </button>\\n        </div>\\n        <div class="collapse navbar-collapse navbar-ex1-collapse">\\n            <div id="navbar-repository">\\n              <ul class="nav navbar-nav navbar-right">\\n                \', escape=False)\nresponse.write(\'auth\' in globals() and auth.navbar(\'Welcome\',mode=\'dropdown\') or \'\')\nresponse.write(\'\\n              </ul>\\n              \', escape=False)\nif response.menu:\n    response.write(\'\\n                  \', escape=False)\n    response.write(MENU(response.menu, _class=\'nav navbar-nav\',li_class=\'dropdown\',ul_class=\'dropdown-menu\'))\n    response.write(\'\\n              \', escape=False)\n    pass\nresponse.write(\'\\n            </div>\\n        </div>\\n      </div>\\n    </nav>\\n    <!-- Masthead ===================================== -->    \\n    \', escape=False)\nresponse.write(\'\\n<br />\\n<div class="container-fluid">\\n    <div class="row">\\n        <div class="col-md-12">\\n            <h1>\', escape=False)\nresponse.write(T(\'Edites\'))\nresponse.write(\'</h1>\\n            <hr />\\n        </div>\\n    </div>\\n</div>\\n\', escape=False)\nresponse.write(\'\\n    <!-- Main ========================================= -->\\n    <!-- Begin page content -->\\n    <div class="container-fluid main-container">\\n      \', escape=False)\nif left_sidebar_enabled:\n    response.write(\'\\n        <div class="col-md-3 left-sidebar">\\n            \', escape=False)\n    response.write(\'\\n            <h3>Left Sidebar</h3>\\n            <p></p>\\n            \', escape=False)\n    response.write(\'\\n        </div>\\n      \', escape=False)\n    pass\nresponse.write(\'\\n\\n      <div class="\', escape=False)\nresponse.write(middle_column)\nresponse.write(\'">\\n        \', escape=False)\nresponse.write(\'\\n        \', escape=False)\nresponse.write(\'\\n\\n\', escape=False)\nresponse.write(\'\\n\\n\', escape=False)\nif not request.args:\n    response.write(\'\\n\\n    <div class="row">\\n        <a class="btn btn-primary btn-lg" data-toggle="modal" data-target="#modal">\\n          <ico class="glyphicon glyphicon-upload"></ico> \', escape=False)\n    response.write(T("Upload resource"))\n    response.write(\'\\n        </a>\\n    </div>\\n\\n    <br />\\n\\n\', escape=False)\n    pass\nresponse.write(\'\\n\\n<div id="grid">\\n    \', escape=False)\nresponse.write(grid)\nresponse.write(\'\\n</div>\\n\\n\', escape=False)\nresponse.write(consulta)\nresponse.write(\'\\n\\n<!-- Modal -->\\n<div class="modal fade" id="modal" tabindex="-1" role="dialog" aria-labelledby="myModalLabel" aria-hidden="true">\\n  <div class="modal-dialog">\\n    <div class="modal-content">\\n      <div class="modal-header">\\n        <a class="close btn-close" data-dismiss="modal" aria-label="Close"><span aria-hidden="true">&times;</span></a>\\n        <h4 class="modal-title" id="myModalLabel">\', escape=False)\nresponse.write(T("Upload"))\nresponse.write(\'</h4>\\n      </div>\\n      <div class="modal-body">\\n          <span class="btn btn-success fileinput-button" title="\', escape=False)\nresponse.write(T(\'Filename length (40), alphanumeric characters and format (pdf, epub or png)\'))\nresponse.write(\'" data-toggle=\\\'tooltip\\\' data-placement="right" >\\n              <i class="glyphicon glyphicon-plus"></i>\\n              <span>\', escape=False)\nresponse.write(T("Select files..."))\nresponse.write(\'</span>\\n              <!-- The file input field used as target for the file upload widget -->\\n              <input id="fileupload" type="file" name="files[]" multiple data-placement="right" >\\n          </span>\\n            <br>\\n            <br>\\n            <!-- The global progress bar -->\\n            <div id="progress" class="progress">\\n                <div class="progress-bar progress-bar-success"></div>\\n            </div>\\n            <!-- The container for the uploaded files -->\\n            <ul id="files" class="files nav"></ul>\\n            <br>\\n\\n      </div>\\n      <div class="modal-footer">\\n        <a class="btn btn-default btn-close" data-dismiss="modal">\', escape=False)\nresponse.write(T("Close"))\nresponse.write(\'</a>\\n      </div>\\n    </div>\\n  </div>\\n</div>\\n\\n\', escape=False)\nresponse.write(\'\\n\\n\', escape=False)\nlanguage = \'en-EN\'\nresponse.write(\'\\n\', escape=False)\nif (T.accepted_language == \'es\' ):\n    response.write(\'\\n   \', escape=False)\n    language = \'es-ES\'\n    response.write(\'\\n\', escape=False)\n    pass\nresponse.write(\'\\n\\n\', escape=False)\nresponse.write(\'\\n\', escape=False)\nresponse.write(\'\\n        \', escape=False)\nresponse.write(\'\\n      </div>\\n\\n      \', escape=False)\nif right_sidebar_enabled:\n    response.write(\'\\n        <div class="col-md-3">\\n            \', escape=False)\n    response.write(\'\\n            <h3>Right Sidebar</h3>\\n            <p></p>\\n            \', escape=False)\n    response.write(\'\\n        </div>\\n      \', escape=False)\n    pass\nresponse.write(\'\\n\\n    </div>\\n\\n    \', escape=False)\nresponse.write(\'\\n        <!--Footer-->\\n        <footer class="page-footer">\\n            <!--Copyright-->\\n            <div class="footer-copyright">\\n                <div class="container-fluid">\\n                    <div class="copyright pull-left">\\n                      <h3>\', escape=False)\nresponse.write(T(\'Copyright\'))\nresponse.write(\' &#169; \', escape=False)\nresponse.write(T(\'Todos los Derechos Reservados\'))\nresponse.write(\' 2014-\', escape=False)\nresponse.write(request.now.year)\nresponse.write(\'</h3>\\n                    </div>\\n                      <div id="poweredBy" class="pull-right">\\n                        \', escape=False)\nresponse.write(T(\'Powered by\'))\nresponse.write(\'\\n                        <a href="http://web2py.com/">Web2py</a>\\n                      </div>\\n                </div>\\n            </div>\\n            <!--/.Copyright-->\\n        </footer>\\n        <!--/.Footer-->\\n    \', escape=False)\nresponse.write(\'\\n    <!-- The javascript =============================== -->\\n    <script src="\', escape=False)\nresponse.write(URL(\'static\',\'js/bootstrap.min.js\'))\nresponse.write(\'"></script>\\n    <script src="\', escape=False)\nresponse.write(URL(\'static\',\'js/web2py-bootstrap3.js\'))\nresponse.write(\'"></script>\\n    <script src="\', escape=False)\nresponse.write(URL(\'static\',\'js/mdb.min.js\'))\nresponse.write(\'"></script>\\n    \', escape=False)\nresponse.write(\'\\n  \', escape=False)\nresponse.write(\'\\n  <script src="\', escape=False)\nresponse.write(URL(\'static\', \'js/summernote/summernote.min.js\'))\nresponse.write(\'"></script>\\n    \', escape=False)\nif language == \'es-ES\':\n    response.write(\'\\n       <script src="\', escape=False)\n    response.write(URL(\'static\', \'js/summernote/locales/summernote-es-ES.js\'))\n    response.write(\'"></script>\\n    \', escape=False)\n    pass\nresponse.write(\'\\n<script>\\n $(function() {\\n     $(".btn-close").click(function(event){\\n         location.reload();\\n     });\\n\\n     $(\\\'#resource_coverpag__row > div > div > span\\\').hide();\\n\\n\\n     /*Upload resorces*/\\n     $(\\\'#fileupload\\\').fileupload({\\n        url: \\\'\', escape=False)\nresponse.write(URL("resource", "upload_file"))\nresponse.write(\'\\\',\\n        dataType: \\\'json\\\',\\n        acceptFileTypes: /(\\\\.|\\\\/)(pdf|epub|png)$/i,\\n        done: function (e, data) {\\n            var result = JSON.parse(data.result);\\n            if (result.success){\\n                $(\\\'<li/>\\\').html($(\\\'<a/>\\\',{\\\'class\\\': "alert-sucess"}).html(result.name+\\\' <ico class="glyphicon glyphicon-ok"></ico>\\\')).appendTo(\\\'#files\\\');\\n            }else{\\n                $(\\\'<li/>\\\').html($(\\\'<a/>\\\',{\\\'class\\\': \\\'alert-danger\\\', \\\'title\\\': result.message, \\\'data-toggle\\\': \\\'tooltip\\\'}).html(result.name+\\\' <ico class="glyphicon glyphicon-remove"></ico>\\\')).appendTo(\\\'#files\\\');\\n            }\\n             $(\\\'[data-toggle="tooltip"]\\\').tooltip();\\n        },\\n        add: function (e, data) {\\n            $(\\\'#progress .progress-bar\\\').css(\\n                \\\'width\\\',\\n                0 + \\\'%\\\'\\n            );\\n            data.submit();\\n        },\\n        progressall: function (e, data) {\\n            var progress = parseInt(data.loaded / data.total * 100, 10);\\n            $(\\\'#progress .progress-bar\\\').css(\\n                \\\'width\\\',\\n                progress + \\\'%\\\'\\n            );\\n        }\\n    });\\n\\n     /*Visibility of the resource description*/\\n     $(\\\'#resource_description\\\').summernote({fontNames: [\\\'Arial\\\', \\\'MyriadPro-Light\\\', \\\'MyriadPro-Regular\\\'],\\n            toolbar: [\\n            //[groupname, [button list]]\\n               [\\\'style\\\', [\\\'style\\\', \\\'bold\\\',\\\'italic\\\', \\\'underline\\\', \\\'clear\\\']],\\n               [\\\'font\\\', [\\\'strikethrough\\\', \\\'superscript\\\', \\\'subscript\\\']],\\n               [\\\'fontsize\\\', [\\\'fontname\\\']],\\n               [\\\'color\\\', [\\\'color\\\']],\\n               [\\\'para\\\', [\\\'ul\\\', \\\'ol\\\', \\\'paragraph\\\']],\\n               [\\\'height\\\', [\\\'height\\\']],\\n               [\\\'insert\\\', [\\\'link\\\', \\\'table\\\', \\\'hr\\\']],\\n               [\\\'misc\\\', [\\\'fullscreen\\\', \\\'codeview\\\', \\\'undo\\\',\\\'redo\\\', \\\'help\\\']],\\n            ],\\n            lang: \\\'\', escape=False)\nresponse.write(language)\nresponse.write("\',\\n            height: 250,   //set editable area\'s height\\n    });\\n });\\n</script>\\n", escape=False)\nresponse.write(\'\\n    <!-- Animations init-->\\n    <script>\\n        new WOW().init();\\n    </script>\\n    <!-- Share ============================y============ -->\\n    <script src="\', escape=False)\nresponse.write(URL(\'static\',\'js/share.js\',vars=dict(static=URL(\'static\',\'img\'))))\nresponse.write(\'"></script>\\n  </body>\\n</html>\\n\', escape=False)'
p7
sS'snapshot'
p8
(dp9
S'exception'
p10
(dp11
S'__hash__'
p12
S"<method-wrapper '__hash__' of exceptions.AttributeError object>"
p13
sS'__setattr__'
p14
S"<method-wrapper '__setattr__' of exceptions.AttributeError object>"
p15
sS'__reduce_ex__'
p16
S'<built-in method __reduce_ex__ of exceptions.AttributeError object>'
p17
sS'__getslice__'
p18
S"<method-wrapper '__getslice__' of exceptions.AttributeError object>"
p19
sS'__getitem__'
p20
S"<method-wrapper '__getitem__' of exceptions.AttributeError object>"
p21
sS'__setstate__'
p22
S'<built-in method __setstate__ of exceptions.AttributeError object>'
p23
sS'args'
p24
S'()'
p25
sS'__reduce__'
p26
S'<built-in method __reduce__ of exceptions.AttributeError object>'
p27
sS'__str__'
p28
S"<method-wrapper '__str__' of exceptions.AttributeError object>"
p29
sS'__format__'
p30
S'<built-in method __format__ of exceptions.AttributeError object>'
p31
sS'__getattribute__'
p32
S"<method-wrapper '__getattribute__' of exceptions.AttributeError object>"
p33
sS'__class__'
p34
S"<type 'exceptions.AttributeError'>"
p35
sS'__unicode__'
p36
S'<built-in method __unicode__ of exceptions.AttributeError object>'
p37
sS'__delattr__'
p38
S"<method-wrapper '__delattr__' of exceptions.AttributeError object>"
p39
sS'__subclasshook__'
p40
S'<built-in method __subclasshook__ of type object>'
p41
sS'__repr__'
p42
S"<method-wrapper '__repr__' of exceptions.AttributeError object>"
p43
sS'__dict__'
p44
S'{}'
p45
sS'__sizeof__'
p46
S'<built-in method __sizeof__ of exceptions.AttributeError object>'
p47
sS'__doc__'
p48
S"'Attribute not found.'"
p49
sS'__init__'
p50
S"<method-wrapper '__init__' of exceptions.AttributeError object>"
p51
sS'__new__'
p52
S'<built-in method __new__ of type object>'
p53
ssS'evalue'
p54
S''
sS'request'
p55
cgluon.html
XML_unpickle
p56
(S's\xdab\x00\x00<div><table><tr><td style="font-weight:bold;vertical-align:top;">ajax</td><td style="vertical-align:top;">:</td><td><div>False</div></td></tr><tr><td style="font-weight:bold;vertical-align:top;">application</td><td style="vertical-align:top;">:</td><td><div>cvrf</div></td></tr><tr><td style="font-weight:bold;vertical-align:top;">args</td><td style="vertical-align:top;">:</td><td><div><table></table></div></td></tr><tr><td style="font-weight:bold;vertical-align:top;">cid</td><td style="vertical-align:top;">:</td><td><div>None</div></td></tr><tr><td style="font-weight:bold;vertical-align:top;">client</td><td style="vertical-align:top;">:</td><td><div>127.0.0.1</div></td></tr><tr><td style="font-weight:bold;vertical-align:top;">controller</td><td style="vertical-align:top;">:</td><td><div>resource</div></td></tr><tr><td style="font-weight:bold;vertical-align:top;">cookies</td><td style="vertical-align:top;">:</td><td><div><table><tr><td style="font-weight:bold;vertical-align:top;">locale</td><td style="vertical-align:top;">:</td><td><div>es<table><tr><td style="font-weight:bold;vertical-align:top;">comment</td><td style="vertical-align:top;">:</td><td><div></div></td></tr><tr><td style="font-weight:bold;vertical-align:top;">domain</td><td style="vertical-align:top;">:</td><td><div></div></td></tr><tr><td style="font-weight:bold;vertical-align:top;">expires</td><td style="vertical-align:top;">:</td><td><div></div></td></tr><tr><td style="font-weight:bold;vertical-align:top;">httponly</td><td style="vertical-align:top;">:</td><td><div></div></td></tr><tr><td style="font-weight:bold;vertical-align:top;">max-age</td><td style="vertical-align:top;">:</td><td><div></div></td></tr><tr><td style="font-weight:bold;vertical-align:top;">path</td><td style="vertical-align:top;">:</td><td><div></div></td></tr><tr><td style="font-weight:bold;vertical-align:top;">secure</td><td style="vertical-align:top;">:</td><td><div></div></td></tr><tr><td style="font-weight:bold;vertical-align:top;">version</td><td style="vertical-align:top;">:</td><td><div></div></td></tr></table></div></td></tr><tr><td style="font-weight:bold;vertical-align:top;">session_id_admin</td><td style="vertical-align:top;">:</td><td><div>127.0.0.1-a569151b-cdd1-421f-9034-dd2a2070ac6a<table><tr><td style="font-weight:bold;vertical-align:top;">comment</td><td style="vertical-align:top;">:</td><td><div></div></td></tr><tr><td style="font-weight:bold;vertical-align:top;">domain</td><td style="vertical-align:top;">:</td><td><div></div></td></tr><tr><td style="font-weight:bold;vertical-align:top;">expires</td><td style="vertical-align:top;">:</td><td><div></div></td></tr><tr><td style="font-weight:bold;vertical-align:top;">httponly</td><td style="vertical-align:top;">:</td><td><div></div></td></tr><tr><td style="font-weight:bold;vertical-align:top;">max-age</td><td style="vertical-align:top;">:</td><td><div></div></td></tr><tr><td style="font-weight:bold;vertical-align:top;">path</td><td style="vertical-align:top;">:</td><td><div></div></td></tr><tr><td style="font-weight:bold;vertical-align:top;">secure</td><td style="vertical-align:top;">:</td><td><div></div></td></tr><tr><td style="font-weight:bold;vertical-align:top;">version</td><td style="vertical-align:top;">:</td><td><div></div></td></tr></table></div></td></tr><tr><td style="font-weight:bold;vertical-align:top;">session_id_cvrf</td><td style="vertical-align:top;">:</td><td><div>127.0.0.1-48d7102c-bb21-44b8-b79c-6eff6b96df02<table><tr><td style="font-weight:bold;vertical-align:top;">comment</td><td style="vertical-align:top;">:</td><td><div></div></td></tr><tr><td style="font-weight:bold;vertical-align:top;">domain</td><td style="vertical-align:top;">:</td><td><div></div></td></tr><tr><td style="font-weight:bold;vertical-align:top;">expires</td><td style="vertical-align:top;">:</td><td><div></div></td></tr><tr><td style="font-weight:bold;vertical-align:top;">httponly</td><td style="vertical-align:top;">:</td><td><div></div></td></tr><tr><td style="font-weight:bold;vertical-align:top;">max-age</td><td style="vertical-align:top;">:</td><td><div></div></td></tr><tr><td style="font-weight:bold;vertical-align:top;">path</td><td style="vertical-align:top;">:</td><td><div></div></td></tr><tr><td style="font-weight:bold;vertical-align:top;">secure</td><td style="vertical-align:top;">:</td><td><div></div></td></tr><tr><td style="font-weight:bold;vertical-align:top;">version</td><td style="vertical-align:top;">:</td><td><div></div></td></tr></table></div></td></tr><tr><td style="font-weight:bold;vertical-align:top;">session_id_welcome</td><td style="vertical-align:top;">:</td><td><div>127.0.0.1-8052a8bd-7353-4abd-bb04-651a724465cc<table><tr><td style="font-weight:bold;vertical-align:top;">comment</td><td style="vertical-align:top;">:</td><td><div></div></td></tr><tr><td style="font-weight:bold;vertical-align:top;">domain</td><td style="vertical-align:top;">:</td><td><div></div></td></tr><tr><td style="font-weight:bold;vertical-align:top;">expires</td><td style="vertical-align:top;">:</td><td><div></div></td></tr><tr><td style="font-weight:bold;vertical-align:top;">httponly</td><td style="vertical-align:top;">:</td><td><div></div></td></tr><tr><td style="font-weight:bold;vertical-align:top;">max-age</td><td style="vertical-align:top;">:</td><td><div></div></td></tr><tr><td style="font-weight:bold;vertical-align:top;">path</td><td style="vertical-align:top;">:</td><td><div></div></td></tr><tr><td style="font-weight:bold;vertical-align:top;">secure</td><td style="vertical-align:top;">:</td><td><div></div></td></tr><tr><td style="font-weight:bold;vertical-align:top;">version</td><td style="vertical-align:top;">:</td><td><div></div></td></tr></table></div></td></tr></table></div></td></tr><tr><td style="font-weight:bold;vertical-align:top;">env</td><td style="vertical-align:top;">:</td><td><div><table><tr><td style="font-weight:bold;vertical-align:top;">HTTP_ACCEPT</td><td style="vertical-align:top;">:</td><td><div>text/html,application/xhtml+xml,application/xml;q=0.9,image/webp,*/*;q=0.8</div></td></tr><tr><td style="font-weight:bold;vertical-align:top;">HTTP_ACCEPT_ENCODING</td><td style="vertical-align:top;">:</td><td><div>gzip, deflate, sdch, br</div></td></tr><tr><td style="font-weight:bold;vertical-align:top;">HTTP_ACCEPT_LANGUAGE</td><td style="vertical-align:top;">:</td><td><div>es-ES,es;q=0.8</div></td></tr><tr><td style="font-weight:bold;vertical-align:top;">HTTP_CACHE_CONTROL</td><td style="vertical-align:top;">:</td><td><div>max-age=0</div></td></tr><tr><td style="font-weight:bold;vertical-align:top;">HTTP_CONNECTION</td><td style="vertical-align:top;">:</td><td><div>keep-alive</div></td></tr><tr><td style="font-weight:bold;vertical-align:top;">HTTP_COOKIE</td><td style="vertical-align:top;">:</td><td><div>locale=es; session_id_welcome=127.0.0.1-8052a8bd-7353-4abd-bb04-651a724465cc; session_id_cvrf=127.0.0.1-48d7102c-bb21-44b8-b79c-6eff6b96df02; session_id_admin=127.0.0.1-a569151b-cdd1-421f-9034-dd2a2070ac6a</div></td></tr><tr><td style="font-weight:bold;vertical-align:top;">HTTP_HOST</td><td style="vertical-align:top;">:</td><td><div>localhost:8000</div></td></tr><tr><td style="font-weight:bold;vertical-align:top;">HTTP_REFERER</td><td style="vertical-align:top;">:</td><td><div>http://localhost:8000/cvrf/resource/edites/edit/state/4?_signature=08b1dc73493bb3edca60a8ccc70957843651f569</div></td></tr><tr><td style="font-weight:bold;vertical-align:top;">HTTP_UPGRADE_INSECURE_REQUESTS</td><td style="vertical-align:top;">:</td><td><div>1</div></td></tr><tr><td style="font-weight:bold;vertical-align:top;">HTTP_USER_AGENT</td><td style="vertical-align:top;">:</td><td><div>Mozilla/5.0 (X11; Linux x86_64) AppleWebKit/537.36 (KHTML, like Gecko) Ubuntu Chromium/56.0.2924.76 Chrome/56.0.2924.76 Safari/537.36</div></td></tr><tr><td style="font-weight:bold;vertical-align:top;">PATH_INFO</td><td style="vertical-align:top;">:</td><td><div>/cvrf/resource/edites</div></td></tr><tr><td style="font-weight:bold;vertical-align:top;">QUERY_STRING</td><td style="vertical-align:top;">:</td><td><div>_signature=62fe11dee7f1ea89aad111a026e073fe1dcb8dc6</div></td></tr><tr><td style="font-weight:bold;vertical-align:top;">REMOTE_ADDR</td><td style="vertical-align:top;">:</td><td><div>127.0.0.1</div></td></tr><tr><td style="font-weight:bold;vertical-align:top;">REMOTE_PORT</td><td style="vertical-align:top;">:</td><td><div>53534</div></td></tr><tr><td style="font-weight:bold;vertical-align:top;">REQUEST_METHOD</td><td style="vertical-align:top;">:</td><td><div>GET</div></td></tr><tr><td style="font-weight:bold;vertical-align:top;">SCRIPT_NAME</td><td style="vertical-align:top;">:</td><td><div></div></td></tr><tr><td style="font-weight:bold;vertical-align:top;">SERVER_NAME</td><td style="vertical-align:top;">:</td><td><div>yasmany-tp500lab</div></td></tr><tr><td style="font-weight:bold;vertical-align:top;">SERVER_PORT</td><td style="vertical-align:top;">:</td><td><div>8000</div></td></tr><tr><td style="font-weight:bold;vertical-align:top;">SERVER_PROTOCOL</td><td style="vertical-align:top;">:</td><td><div>HTTP/1.1</div></td></tr><tr><td style="font-weight:bold;vertical-align:top;">SERVER_SOFTWARE</td><td style="vertical-align:top;">:</td><td><div>Rocket 1.2.6</div></td></tr><tr><td style="font-weight:bold;vertical-align:top;">app_folders</td><td style="vertical-align:top;">:</td><td><div>set([&#x27;/opt/python/web2py/web2py/applications/cvrf/&#x27;, &#x27;/opt/python/web2py/web2py/applications/admin/&#x27;, &#x27;/opt/python/web2py/web2py/applications/welcome/&#x27;])</div></td></tr><tr><td style="font-weight:bold;vertical-align:top;">applications_parent</td><td style="vertical-align:top;">:</td><td><div>/opt/python/web2py/web2py</div></td></tr><tr><td style="font-weight:bold;vertical-align:top;">cmd_args</td><td style="vertical-align:top;">:</td><td><div><table></table></div></td></tr><tr><td style="font-weight:bold;vertical-align:top;">cmd_options</td><td style="vertical-align:top;">:</td><td><div>&lt;Values at 0x7f13d6849248: {&#x27;verbose&#x27;: False, &#x27;ip&#x27;: &#x27;127.0.0.1&#x27;, &#x27;debuglevel&#x27;: 30, &#x27;with_scheduler&#x27;: False, &#x27;shutdown_timeout&#x27;: 5, &#x27;taskbar&#x27;: False, &#x27;with_coverage&#x27;: False, &#x27;pid_filename&#x27;: &#x27;httpserver.pid&#x27;, &#x27;maxthreads&#x27;: None, &#x27;softcron&#x27;: False, &#x27;server_name&#x27;: &#x27;yasmany-tp500lab&#x27;, &#x27;bpython&#x27;: False, &#x27;nogui&#x27;: False, &#x27;port&#x27;: 8000, &#x27;print_errors&#x27;: False, &#x27;extcron&#x27;: False, &#x27;runcron&#x27;: False, &#x27;run_system_tests&#x27;: False, &#x27;test&#x27;: None, &#x27;folder&#x27;: &#x27;/opt/python/web2py/web2py&#x27;, &#x27;config&#x27;: &#x27;&#x27;, &#x27;minthreads&#x27;: None, &#x27;shell&#x27;: None, &#x27;run&#x27;: &#x27;&#x27;, &#x27;log_filename&#x27;: &#x27;httpserver.log&#x27;, &#x27;profiler_dir&#x27;: None, &#x27;args&#x27;: [&#x27;&#x27;], &#x27;socket_timeout&#x27;: 5, &#x27;ssl_ca_certificate&#x27;: None, &#x27;scheduler&#x27;: None, &#x27;interfaces&#x27;: None, &#x27;ssl_private_key&#x27;: &#x27;&#x27;, &#x27;gae&#x27;: None, &#x27;password&#x27;: &#x27;******&#x27;, &#x27;request_queue_size&#x27;: 5, &#x27;ssl_certificate&#x27;: &#x27;&#x27;, &#x27;cronjob&#x27;: False, &#x27;numthreads&#x27;: None, &#x27;quiet&#x27;: False, &#x27;import_models&#x27;: False, &#x27;timeout&#x27;: 10, &#x27;plain&#x27;: False, &#x27;nobanner&#x27;: False}&gt;</div></td></tr><tr><td style="font-weight:bold;vertical-align:top;">db_sessions</td><td style="vertical-align:top;">:</td><td><div>set([])</div></td></tr><tr><td style="font-weight:bold;vertical-align:top;">debugging</td><td style="vertical-align:top;">:</td><td><div>True</div></td></tr><tr><td style="font-weight:bold;vertical-align:top;">gluon_parent</td><td style="vertical-align:top;">:</td><td><div>/opt/python/web2py/web2py</div></td></tr><tr><td style="font-weight:bold;vertical-align:top;">http_accept</td><td style="vertical-align:top;">:</td><td><div>text/html,application/xhtml+xml,application/xml;q=0.9,image/webp,*/*;q=0.8</div></td></tr><tr><td style="font-weight:bold;vertical-align:top;">http_accept_encoding</td><td style="vertical-align:top;">:</td><td><div>gzip, deflate, sdch, br</div></td></tr><tr><td style="font-weight:bold;vertical-align:top;">http_accept_language</td><td style="vertical-align:top;">:</td><td><div>es-ES,es;q=0.8</div></td></tr><tr><td style="font-weight:bold;vertical-align:top;">http_cache_control</td><td style="vertical-align:top;">:</td><td><div>max-age=0</div></td></tr><tr><td style="font-weight:bold;vertical-align:top;">http_connection</td><td style="vertical-align:top;">:</td><td><div>keep-alive</div></td></tr><tr><td style="font-weight:bold;vertical-align:top;">http_cookie</td><td style="vertical-align:top;">:</td><td><div>locale=es; session_id_welcome=127.0.0.1-8052a8bd-7353-4abd-bb04-651a724465cc; session_id_cvrf=127.0.0.1-48d7102c-bb21-44b8-b79c-6eff6b96df02; session_id_admin=127.0.0.1-a569151b-cdd1-421f-9034-dd2a2070ac6a</div></td></tr><tr><td style="font-weight:bold;vertical-align:top;">http_host</td><td style="vertical-align:top;">:</td><td><div>localhost:8000</div></td></tr><tr><td style="font-weight:bold;vertical-align:top;">http_referer</td><td style="vertical-align:top;">:</td><td><div>http://localhost:8000/cvrf/resource/edites/edit/state/4?_signature=08b1dc73493bb3edca60a8ccc70957843651f569</div></td></tr><tr><td style="font-weight:bold;vertical-align:top;">http_upgrade_insecure_requests</td><td style="vertical-align:top;">:</td><td><div>1</div></td></tr><tr><td style="font-weight:bold;vertical-align:top;">http_user_agent</td><td style="vertical-align:top;">:</td><td><div>Mozilla/5.0 (X11; Linux x86_64) AppleWebKit/537.36 (KHTML, like Gecko) Ubuntu Chromium/56.0.2924.76 Chrome/56.0.2924.76 Safari/537.36</div></td></tr><tr><td style="font-weight:bold;vertical-align:top;">is_jython</td><td style="vertical-align:top;">:</td><td><div>False</div></td></tr><tr><td style="font-weight:bold;vertical-align:top;">is_pypy</td><td style="vertical-align:top;">:</td><td><div>False</div></td></tr><tr><td style="font-weight:bold;vertical-align:top;">is_source</td><td style="vertical-align:top;">:</td><td><div>True</div></td></tr><tr><td style="font-weight:bold;vertical-align:top;">local_hosts</td><td style="vertical-align:top;">:</td><td><div><table><tr><td><div>yasmany-tp500lab</div></td></tr><tr><td><div>127.0.1.1</div></td></tr><tr><td><div>::ffff:127.0.0.1</div></td></tr><tr><td><div>::1</div></td></tr><tr><td><div>yasmany-TP500LAB</div></td></tr><tr><td><div>127.0.0.1</div></td></tr></table></div></td></tr><tr><td style="font-weight:bold;vertical-align:top;">path_info</td><td style="vertical-align:top;">:</td><td><div>/cvrf/resource/edites</div></td></tr><tr><td style="font-weight:bold;vertical-align:top;">query_string</td><td style="vertical-align:top;">:</td><td><div>_signature=62fe11dee7f1ea89aad111a026e073fe1dcb8dc6</div></td></tr><tr><td style="font-weight:bold;vertical-align:top;">remote_addr</td><td style="vertical-align:top;">:</td><td><div>127.0.0.1</div></td></tr><tr><td style="font-weight:bold;vertical-align:top;">remote_port</td><td style="vertical-align:top;">:</td><td><div>53534</div></td></tr><tr><td style="font-weight:bold;vertical-align:top;">request_method</td><td style="vertical-align:top;">:</td><td><div>GET</div></td></tr><tr><td style="font-weight:bold;vertical-align:top;">request_uri</td><td style="vertical-align:top;">:</td><td><div>/cvrf/resource/edites?_signature=62fe11dee7f1ea89aad111a026e073fe1dcb8dc6</div></td></tr><tr><td style="font-weight:bold;vertical-align:top;">script_name</td><td style="vertical-align:top;">:</td><td><div></div></td></tr><tr><td style="font-weight:bold;vertical-align:top;">server_name</td><td style="vertical-align:top;">:</td><td><div>yasmany-tp500lab</div></td></tr><tr><td style="font-weight:bold;vertical-align:top;">server_port</td><td style="vertical-align:top;">:</td><td><div>8000</div></td></tr><tr><td style="font-weight:bold;vertical-align:top;">server_protocol</td><td style="vertical-align:top;">:</td><td><div>HTTP/1.1</div></td></tr><tr><td style="font-weight:bold;vertical-align:top;">server_software</td><td style="vertical-align:top;">:</td><td><div>Rocket 1.2.6</div></td></tr><tr><td style="font-weight:bold;vertical-align:top;">web2py_path</td><td style="vertical-align:top;">:</td><td><div>/opt/python/web2py/web2py</div></td></tr><tr><td style="font-weight:bold;vertical-align:top;">web2py_version</td><td style="vertical-align:top;">:</td><td><div>2.14.6-stable+timestamp.2016.05.10.00.21.47</div></td></tr><tr><td style="font-weight:bold;vertical-align:top;">wsgi.errors</td><td style="vertical-align:top;">:</td><td><div>&lt;open file &#x27;&lt;stderr&gt;&#x27;, mode &#x27;w&#x27; at 0x7f13db53f1e0&gt;</div></td></tr><tr><td style="font-weight:bold;vertical-align:top;">wsgi.file_wrapper</td><td style="vertical-align:top;">:</td><td><div>&lt;class wsgiref.util.FileWrapper at 0x7f13d6896390&gt;</div></td></tr><tr><td style="font-weight:bold;vertical-align:top;">wsgi.input</td><td style="vertical-align:top;">:</td><td><div>&lt;socket._fileobject object at 0x7f1396cc3850&gt;</div></td></tr><tr><td style="font-weight:bold;vertical-align:top;">wsgi.multiprocess</td><td style="vertical-align:top;">:</td><td><div>False</div></td></tr><tr><td style="font-weight:bold;vertical-align:top;">wsgi.multithread</td><td style="vertical-align:top;">:</td><td><div>True</div></td></tr><tr><td style="font-weight:bold;vertical-align:top;">wsgi.run_once</td><td style="vertical-align:top;">:</td><td><div>False</div></td></tr><tr><td style="font-weight:bold;vertical-align:top;">wsgi.url_scheme</td><td style="vertical-align:top;">:</td><td><div>http</div></td></tr><tr><td style="font-weight:bold;vertical-align:top;">wsgi.version</td><td style="vertical-align:top;">:</td><td><div><table><tr><td><div>1</div></td></tr><tr><td><div>0</div></td></tr></table></div></td></tr><tr><td style="font-weight:bold;vertical-align:top;">wsgi_errors</td><td style="vertical-align:top;">:</td><td><div>&lt;open file &#x27;&lt;stderr&gt;&#x27;, mode &#x27;w&#x27; at 0x7f13db53f1e0&gt;</div></td></tr><tr><td style="font-weight:bold;vertical-align:top;">wsgi_file_wrapper</td><td style="vertical-align:top;">:</td><td><div>&lt;class wsgiref.util.FileWrapper at 0x7f13d6896390&gt;</div></td></tr><tr><td style="font-weight:bold;vertical-align:top;">wsgi_input</td><td style="vertical-align:top;">:</td><td><div>&lt;socket._fileobject object at 0x7f1396cc3850&gt;</div></td></tr><tr><td style="font-weight:bold;vertical-align:top;">wsgi_multiprocess</td><td style="vertical-align:top;">:</td><td><div>False</div></td></tr><tr><td style="font-weight:bold;vertical-align:top;">wsgi_multithread</td><td style="vertical-align:top;">:</td><td><div>True</div></td></tr><tr><td style="font-weight:bold;vertical-align:top;">wsgi_run_once</td><td style="vertical-align:top;">:</td><td><div>False</div></td></tr><tr><td style="font-weight:bold;vertical-align:top;">wsgi_url_scheme</td><td style="vertical-align:top;">:</td><td><div>http</div></td></tr><tr><td style="font-weight:bold;vertical-align:top;">wsgi_version</td><td style="vertical-align:top;">:</td><td><div><table><tr><td><div>1</div></td></tr><tr><td><div>0</div></td></tr></table></div></td></tr></table></div></td></tr><tr><td style="font-weight:bold;vertical-align:top;">extension</td><td style="vertical-align:top;">:</td><td><div>html</div></td></tr><tr><td style="font-weight:bold;vertical-align:top;">folder</td><td style="vertical-align:top;">:</td><td><div>/opt/python/web2py/web2py/applications/cvrf/</div></td></tr><tr><td style="font-weight:bold;vertical-align:top;">function</td><td style="vertical-align:top;">:</td><td><div>edites</div></td></tr><tr><td style="font-weight:bold;vertical-align:top;">global_settings</td><td style="vertical-align:top;">:</td><td><div><table><tr><td style="font-weight:bold;vertical-align:top;">app_folders</td><td style="vertical-align:top;">:</td><td><div>set([&#x27;/opt/python/web2py/web2py/applications/cvrf/&#x27;, &#x27;/opt/python/web2py/web2py/applications/admin/&#x27;, &#x27;/opt/python/web2py/web2py/applications/welcome/&#x27;])</div></td></tr><tr><td style="font-weight:bold;vertical-align:top;">applications_parent</td><td style="vertical-align:top;">:</td><td><div>/opt/python/web2py/web2py</div></td></tr><tr><td style="font-weight:bold;vertical-align:top;">cmd_args</td><td style="vertical-align:top;">:</td><td><div><table></table></div></td></tr><tr><td style="font-weight:bold;vertical-align:top;">cmd_options</td><td style="vertical-align:top;">:</td><td><div>&lt;Values at 0x7f13d6849248: {&#x27;verbose&#x27;: False, &#x27;ip&#x27;: &#x27;127.0.0.1&#x27;, &#x27;debuglevel&#x27;: 30, &#x27;with_scheduler&#x27;: False, &#x27;shutdown_timeout&#x27;: 5, &#x27;taskbar&#x27;: False, &#x27;with_coverage&#x27;: False, &#x27;pid_filename&#x27;: &#x27;httpserver.pid&#x27;, &#x27;maxthreads&#x27;: None, &#x27;softcron&#x27;: False, &#x27;server_name&#x27;: &#x27;yasmany-tp500lab&#x27;, &#x27;bpython&#x27;: False, &#x27;nogui&#x27;: False, &#x27;port&#x27;: 8000, &#x27;print_errors&#x27;: False, &#x27;extcron&#x27;: False, &#x27;runcron&#x27;: False, &#x27;run_system_tests&#x27;: False, &#x27;test&#x27;: None, &#x27;folder&#x27;: &#x27;/opt/python/web2py/web2py&#x27;, &#x27;config&#x27;: &#x27;&#x27;, &#x27;minthreads&#x27;: None, &#x27;shell&#x27;: None, &#x27;run&#x27;: &#x27;&#x27;, &#x27;log_filename&#x27;: &#x27;httpserver.log&#x27;, &#x27;profiler_dir&#x27;: None, &#x27;args&#x27;: [&#x27;&#x27;], &#x27;socket_timeout&#x27;: 5, &#x27;ssl_ca_certificate&#x27;: None, &#x27;scheduler&#x27;: None, &#x27;interfaces&#x27;: None, &#x27;ssl_private_key&#x27;: &#x27;&#x27;, &#x27;gae&#x27;: None, &#x27;password&#x27;: &#x27;******&#x27;, &#x27;request_queue_size&#x27;: 5, &#x27;ssl_certificate&#x27;: &#x27;&#x27;, &#x27;cronjob&#x27;: False, &#x27;numthreads&#x27;: None, &#x27;quiet&#x27;: False, &#x27;import_models&#x27;: False, &#x27;timeout&#x27;: 10, &#x27;plain&#x27;: False, &#x27;nobanner&#x27;: False}&gt;</div></td></tr><tr><td style="font-weight:bold;vertical-align:top;">db_sessions</td><td style="vertical-align:top;">:</td><td><div>set([])</div></td></tr><tr><td style="font-weight:bold;vertical-align:top;">debugging</td><td style="vertical-align:top;">:</td><td><div>True</div></td></tr><tr><td style="font-weight:bold;vertical-align:top;">gluon_parent</td><td style="vertical-align:top;">:</td><td><div>/opt/python/web2py/web2py</div></td></tr><tr><td style="font-weight:bold;vertical-align:top;">is_jython</td><td style="vertical-align:top;">:</td><td><div>False</div></td></tr><tr><td style="font-weight:bold;vertical-align:top;">is_pypy</td><td style="vertical-align:top;">:</td><td><div>False</div></td></tr><tr><td style="font-weight:bold;vertical-align:top;">is_source</td><td style="vertical-align:top;">:</td><td><div>True</div></td></tr><tr><td style="font-weight:bold;vertical-align:top;">local_hosts</td><td style="vertical-align:top;">:</td><td><div><table><tr><td><div>yasmany-tp500lab</div></td></tr><tr><td><div>127.0.1.1</div></td></tr><tr><td><div>::ffff:127.0.0.1</div></td></tr><tr><td><div>::1</div></td></tr><tr><td><div>yasmany-TP500LAB</div></td></tr><tr><td><div>127.0.0.1</div></td></tr></table></div></td></tr><tr><td style="font-weight:bold;vertical-align:top;">web2py_version</td><td style="vertical-align:top;">:</td><td><div>2.14.6-stable+timestamp.2016.05.10.00.21.47</div></td></tr></table></div></td></tr><tr><td style="font-weight:bold;vertical-align:top;">is_https</td><td style="vertical-align:top;">:</td><td><div>False</div></td></tr><tr><td style="font-weight:bold;vertical-align:top;">is_local</td><td style="vertical-align:top;">:</td><td><div>True</div></td></tr><tr><td style="font-weight:bold;vertical-align:top;">is_restful</td><td style="vertical-align:top;">:</td><td><div>False</div></td></tr><tr><td style="font-weight:bold;vertical-align:top;">is_scheduler</td><td style="vertical-align:top;">:</td><td><div>False</div></td></tr><tr><td style="font-weight:bold;vertical-align:top;">is_shell</td><td style="vertical-align:top;">:</td><td><div>False</div></td></tr><tr><td style="font-weight:bold;vertical-align:top;">now</td><td style="vertical-align:top;">:</td><td><div>datetime.datetime(2017, 3, 8, 10, 51, 7, 74263)</div></td></tr><tr><td style="font-weight:bold;vertical-align:top;">raw_args</td><td style="vertical-align:top;">:</td><td><div></div></td></tr><tr><td style="font-weight:bold;vertical-align:top;">raw_extension</td><td style="vertical-align:top;">:</td><td><div>None</div></td></tr><tr><td style="font-weight:bold;vertical-align:top;">url</td><td style="vertical-align:top;">:</td><td><div>/cvrf/resource/edites</div></td></tr><tr><td style="font-weight:bold;vertical-align:top;">utcnow</td><td style="vertical-align:top;">:</td><td><div>datetime.datetime(2017, 3, 8, 15, 51, 7, 74288)</div></td></tr><tr><td style="font-weight:bold;vertical-align:top;">wsgi</td><td style="vertical-align:top;">:</td><td><div>&lt;gluon.main.LazyWSGI object at 0x7f13972c6d50&gt;</div></td></tr></table></div>'
tRp57
sS'frames'
p58
(lp59
(dp60
S'file'
p61
S'/opt/python/web2py/web2py/gluon/restricted.py'
p62
sS'dump'
p63
(dp64
S'environment'
p65
S"{'A': <class 'gluon.html.A'>, 'ANY_OF': <class 'gluon.validators.ANY_OF'>, 'ASSIGNJS': <function ASSIGNJS>, 'AppConfig': <function AppConfig>, 'Auth': <class 'gluon.tools.Auth'>, 'B': <class 'gluon.html.B'>, 'BEAUTIFY': <class 'gluon.html.BEAUTIFY'>, 'BODY': <class 'gluon.html.BODY'>, 'BR': <class 'gluon.html.BR'>, 'BUTTON': <class 'gluon.html.BUTTON'>, ...}"
p66
sS'ccode'
p67
S'<code object <module> at 0x7f13c474c130, file "/...cations/cvrf/views/resource/edites.html", line 1>'
p68
ssS'lnum'
p69
I227
sS'lines'
p70
(dp71
I224
S'            ccode = code'
p72
sI225
S'        else:'
p73
sI226
S'            ccode = compile2(code, layer)'
p74
sI227
S'        exec ccode in environment'
p75
sI228
S'    except HTTP:'
p76
sI229
S'        raise'
p77
sI230
S'    except RestrictedError:'
p78
sI231
S'        # do not encapsulate (obfuscate) the original RestrictedError'
p79
sI222
S'    try:'
p80
sI223
S'        if isinstance(code, types.CodeType):'
p81
ssS'call'
p82
S'(code=\'response.write(\\\'<!DOCTYPE html>\\\\n<!--[if (gt IE ..."></script>\\\\n  </body>\\\\n</html>\\\\n\\\', escape=False)\', environment={\'A\': <class \'gluon.html.A\'>, \'ANY_OF\': <class \'gluon.validators.ANY_OF\'>, \'ASSIGNJS\': <function ASSIGNJS>, \'AppConfig\': <function AppConfig>, \'Auth\': <class \'gluon.tools.Auth\'>, \'B\': <class \'gluon.html.B\'>, \'BEAUTIFY\': <class \'gluon.html.BEAUTIFY\'>, \'BODY\': <class \'gluon.html.BODY\'>, \'BR\': <class \'gluon.html.BR\'>, \'BUTTON\': <class \'gluon.html.BUTTON\'>, ...}, layer=\'/opt/python/web2py/web2py/applications/cvrf/views/resource/edites.html\')'
p83
sS'func'
p84
S'restricted'
p85
sa(dp86
g61
S'/opt/python/web2py/web2py/applications/cvrf/views/resource/edites.html'
p87
sg63
(dp88
S'end'
p89
S'undefined'
p90
ssg69
I106
sg70
(dp91
I97
S"response.write('\\n\\n', escape=False)"
p92
sI98
S'if not request.args:'
p93
sI99
S'    response.write(\'\\n\\n    <div class="row">\\n        <a class="btn btn-primary btn-lg" data-toggle="modal" data-target="#modal">\\n          <ico class="glyphicon glyphicon-upload"></ico> \', escape=False)'
p94
sI100
S'    response.write(T("Upload resource"))'
p95
sI101
S"    response.write('\\n        </a>\\n    </div>\\n\\n    <br />\\n\\n', escape=False)"
p96
sI102
S'    pass'
p97
sI103
S'response.write(\'\\n\\n<div id="grid">\\n    \', escape=False)'
p98
sI104
S'response.write(grid)'
p99
sI105
S"response.write('\\n</div>\\n\\n', escape=False)"
p100
sI106
S'response.write(consulta)'
p101
sI107
S'response.write(\'\\n\\n<!-- Modal -->\\n<div class="modal fade" id="modal" tabindex="-1" role="dialog" aria-labelledby="myModalLabel" aria-hidden="true">\\n  <div class="modal-dialog">\\n    <div class="modal-content">\\n      <div class="modal-header">\\n        <a class="close btn-close" data-dismiss="modal" aria-label="Close"><span aria-hidden="true">&times;</span></a>\\n        <h4 class="modal-title" id="myModalLabel">\', escape=False)'
p102
sI108
S'response.write(T("Upload"))'
p103
sI109
S'response.write(\'</h4>\\n      </div>\\n      <div class="modal-body">\\n          <span class="btn btn-success fileinput-button" title="\', escape=False)'
p104
sI110
S"response.write(T('Filename length (40), alphanumeric characters and format (pdf, epub or png)'))"
p105
sI111
S'response.write(\'" data-toggle=\\\'tooltip\\\' data-placement="right" >\\n              <i class="glyphicon glyphicon-plus"></i>\\n              <span>\', escape=False)'
p106
sI112
S'response.write(T("Select files..."))'
p107
sI113
S'response.write(\'</span>\\n              <!-- The file input field used as target for the file upload widget -->\\n              <input id="fileupload" type="file" name="files[]" multiple data-placement="right" >\\n          </span>\\n            <br>\\n            <br>\\n            <!-- The global progress bar -->\\n            <div id="progress" class="progress">\\n                <div class="progress-bar progress-bar-success"></div>\\n            </div>\\n            <!-- The container for the uploaded files -->\\n            <ul id="files" class="files nav"></ul>\\n            <br>\\n\\n      </div>\\n      <div class="modal-footer">\\n        <a class="btn btn-default btn-close" data-dismiss="modal">\', escape=False)'
p108
sI114
S'response.write(T("Close"))'
p109
sI115
S"response.write('</a>\\n      </div>\\n    </div>\\n  </div>\\n</div>\\n\\n', escape=False)"
p110
sI116
S"response.write('\\n\\n', escape=False)"
p111
ssg82
S'()'
p112
sg84
S'<module>'
p113
sa(dp114
g61
S'/opt/python/web2py/web2py/gluon/globals.py'
p115
sg63
(dp116
S'self.body.write'
p117
S'<built-in method write of cStringIO.StringO object>'
p118
sS'self.body'
p119
S'<cStringIO.StringO object>'
p120
sS'self'
p121
S"<Storage {'body': <cStringIO.StringO object at 0...0x7f1397e58488>, 'view': 'resource/edites.html'}>"
p122
sS'global xmlescape'
p123
S'<function xmlescape>'
p124
sS'data'
p125
S'<Rows (7)>'
p126
ssg69
I430
sg70
(dp127
I425
S''
sI426
S'    def write(self, data, escape=True):'
p128
sI427
S'        if not escape:'
p129
sI428
S'            self.body.write(str(data))'
p130
sI429
S'        else:'
p131
sI430
S'            self.body.write(xmlescape(data))'
p132
sI431
S''
sI432
S'    def render(self, *a, **b):'
p133
sI433
S'        from compileapp import run_view_in'
p134
sI434
S'        if len(a) > 2:'
p135
ssg82
S"(self=<Storage {'body': <cStringIO.StringO object at 0...0x7f1397e58488>, 'view': 'resource/edites.html'}>, data=<Rows (7)>, escape=True)"
p136
sg84
S'write'
p137
sa(dp138
g61
S'/opt/python/web2py/web2py/gluon/html.py'
p139
sg63
(dp140
S'data'
p141
S'<Rows (7)>'
p142
sS'data.xml'
p143
S'<bound method Rows.xml of <Rows (7)>>'
p144
ssg69
I131
sg70
(dp145
I128
S''
sI129
S'    # first try the xml function'
p146
sI130
S"    if hasattr(data, 'xml') and callable(data.xml):"
p147
sI131
S'        return data.xml()'
p148
sI132
S''
sI133
S'    # otherwise, make it a string'
p149
sI134
S'    if not isinstance(data, (str, unicode)):'
p150
sI135
S'        data = str(data)'
p151
sI126
S'        quote: optional (default False)'
p152
sI127
S'    """'
p153
ssg82
S'(data=<Rows (7)>, quote=True)'
p154
sg84
S'xmlescape'
p155
sa(dp156
g61
S'/opt/python/web2py/web2py/gluon/packages/dal/pydal/objects.py'
p157
sg63
(dp158
S'self.db.represent'
p159
S'<bound method DAL.represent of <DAL uri="sqlite://storage.sqlite1">>'
p160
sS'rv'
p161
g90
sS'self'
p162
S'<Rows (7)>'
p163
sS'self.db'
p164
S'<DAL uri="sqlite://storage.sqlite1">'
p165
ssg69
I2344
sg70
(dp166
I2339
S'                        colnames=self.colnames'
p167
sI2340
S'                    ) for row in self),'
p168
sI2341
S'                rows_name'
p169
sI2342
S'            )'
p170
sI2343
S''
sI2344
S"        rv = self.db.represent('rows_xml', self)"
p171
sI2345
S"        if hasattr(rv, 'xml') and callable(getattr(rv, 'xml')):"
p172
sI2346
S'            return rv.xml()'
p173
sI2347
S'        return rv'
p174
sI2348
S''
ssg82
S"(self=<Rows (7)>, strict=False, row_name='row', rows_name='rows')"
p175
sg84
S'xml'
p176
sa(dp177
g61
S'/opt/python/web2py/web2py/gluon/packages/dal/pydal/base.py'
p178
sg63
(dp179
S'self.representers'
p180
S"{'rows_render': <function represent>, 'rows_xml': <class 'gluon.sqlhtml.SQLTABLE'>}"
p181
sS'self'
p182
S'<DAL uri="sqlite://storage.sqlite1">'
p183
sS'args'
p184
S'(<Rows (7)>,)'
p185
sS'name'
p186
S"'rows_xml'"
p187
sS'kwargs'
p188
g45
ssg69
I1076
sg70
(dp189
I1071
S''
sI1072
S'    def has_representer(self, name):'
p190
sI1073
S'        return callable(self.representers.get(name))'
p191
sI1074
S''
sI1075
S'    def represent(self, name, *args, **kwargs):'
p192
sI1076
S'        return self.representers[name](*args, **kwargs)'
p193
sI1077
S''
sI1078
S'    def export_to_csv_file(self, ofile, *args, **kwargs):'
p194
sI1079
S"        step = long(kwargs.get('max_fetch_rows,',500))"
p195
sI1080
S"        write_colnames = kwargs['write_colnames'] = \\"
p196
ssg82
S'(self=<DAL uri="sqlite://storage.sqlite1">, name=\'rows_xml\', *args=(<Rows (7)>,), **kwargs={})'
p197
sg84
S'represent'
p198
sa(dp199
g61
S'/opt/python/web2py/web2py/gluon/sqlhtml.py'
p200
sg63
(dp201
S'record'
p202
S"<Row {'state': {'description': '', 'is_active': ...ng', 'year_update': '2017', 'identifier': None}}>"
p203
sS'global represent'
p204
S'<function represent>'
p205
sS'r'
S"'resource.resource.8add352566ff4ee0.437265617465206d6f6465726e205765622073697465732e706466.pdf'"
p206
sS'field'
p207
S'<pydal.objects.Field object>'
p208
ssg69
I3329
sg70
(dp209
I3328
S'                elif field.represent:'
p210
sI3329
S'                    r = represent(field, r, record)'
p211
sI3330
S"                elif field.type == 'blob' and r:"
p212
sI3331
S"                    r = 'DATA'"
p213
sI3332
S"                elif field.type == 'upload':"
p214
sI3333
S'                    if upload and r:'
p215
sI3324
S'                                    for k in field._table._primarykey]))'
p216
sI3325
S"                    r = A(r, _href='%s/%s?%s' % (linkto, tablename, key))"
p217
sI3326
S"                elif isinstance(field.type, str) and field.type.startswith('list:'):"
p218
sI3327
S'                    r = represent(field, r or [], record)'
p219
ssg82
S"(self=<gluon.sqlhtml.SQLTABLE object>, sqlrows=<Rows (7)>, linkto=None, upload=None, orderby=None, headers={}, truncate=16, columns=['state.id', 'state.name', 'state.description', 'state.is_active', 'state.created_on', 'state.created_by', 'state.modified_on', 'state.modified_by', 'resource.id', 'resource.resource', 'resource.coverpag', 'resource.title', 'resource.description', 'resource.keyword', 'resource.author', 'resource.language', 'resource.publisher', 'resource.state', 'resource.rtype', 'resource.category', ...], th_link='', extracolumns=None, selectid=None, renderstyle=False, cid=None, colgroup=False, **attributes={})"
p220
sg84
g50
sa(dp221
g61
S'/opt/python/web2py/web2py/gluon/sqlhtml.py'
p222
sg63
(dp223
S'record'
p224
S"<Row {'state': {'description': '', 'is_active': ...ng', 'year_update': '2017', 'identifier': None}}>"
p225
sS'value'
p226
S"'resource.resource.8add352566ff4ee0.437265617465206d6f6465726e205765622073697465732e706466.pdf'"
p227
sS'f'
S'<function <lambda>>'
p228
ssg69
I70
sg70
(dp229
I65
S'    else:'
p230
sI66
S'        n = 1'
p231
sI67
S'    if n == 1:'
p232
sI68
S'        return f(value)'
p233
sI69
S'    elif n == 2:'
p234
sI70
S'        return f(value, record)'
p235
sI71
S'    else:'
p236
sI72
S'        raise RuntimeError("field representation must take 1 or 2 args")'
p237
sI73
S''
sI74
S'class CacheRepresenter(object):'
p238
ssg82
S"(field=<pydal.objects.Field object>, value='resource.resource.8add352566ff4ee0.437265617465206d6f6465726e205765622073697465732e706466.pdf', record=<Row {'state': {'description': '', 'is_active': ...ng', 'year_update': '2017', 'identifier': None}}>)"
p239
sg84
g198
sa(dp240
g61
S'/opt/python/web2py/web2py/applications/cvrf/models/resource/db.py'
p241
sg63
(dp242
S'register'
p243
S"<Row {'state': {'description': '', 'is_active': ...ng', 'year_update': '2017', 'identifier': None}}>"
p244
sS'_href'
p245
g90
sS'args'
p246
g90
sS'global T'
p247
S'<gluon.languages.translator object>'
p248
sS'db.resource.resource.represent'
p249
S'<function <lambda>>'
p250
sS'db.resource'
p251
S'<Table resource (id, resource, coverpag, title, ...reated_on, created_by, modified_on, modified_by)>'
p252
sS'value'
p253
S"'resource.resource.8add352566ff4ee0.437265617465206d6f6465726e205765622073697465732e706466.pdf'"
p254
sS'global URL'
p255
S'<function URL>'
p256
sS'db.resource.resource'
p257
S'<pydal.objects.Field object>'
p258
sS'global db'
p259
S'<DAL uri="sqlite://storage.sqlite1">'
p260
sS'register.id'
p261
g90
sS'global A'
p262
S"<class 'gluon.html.A'>"
p263
ssg69
I88
sg70
(dp264
I83
S'    return 0'
p265
sI84
S''
sI85
S"db.resource.resource.requires = [IS_UPLOAD_FILENAME(filename='^(\\s|\\.|-|\\w|\xc3\xa1|\xc3\xa9|\xc3\xad|\xc3\xb3|\xc3\xba|\xc3\xb1|\xc3\x81|\xc3\x89|\xc3\x8d|\xc3\x93|\xc3\x9a|\xc3\x91){1,40}$', extension='^(pdf|epub|png)$', case=0)]"
p266
sI86
S'db.resource.resource.comment = T("Filename length (40), alphanumeric characters and format (pdf, epub or png)")'
p267
sI87
S'db.resource.coverpag.comment = T("Image format (png) and  (120x160)")'
p268
sI88
S"db.resource.resource.represent = lambda value, register: A(T('Click here for download'), _href=URL('resource', 'download', args=[register.id, value]))"
p269
sI89
S''
sI90
S'db.resource.resource.authorization = lambda registro: auth.is_logged_in()'
p270
sI91
S''
sI92
S"db.resource.coverpag.requires = IS_EMPTY_OR(IS_IMAGE(extensions=('png'), maxsize=(120, 160)))"
p271
ssg82
S"(value='resource.resource.8add352566ff4ee0.437265617465206d6f6465726e205765622073697465732e706466.pdf', register=<Row {'state': {'description': '', 'is_active': ...ng', 'year_update': '2017', 'identifier': None}}>)"
p272
sg84
S'<lambda>'
p273
sa(dp274
g61
S'/opt/python/web2py/web2py/gluon/packages/dal/pydal/objects.py'
p275
sg63
(dp276
S'builtinAttributeError'
p277
S"<type 'exceptions.AttributeError'>"
p278
ssg69
I90
sg70
(dp279
I85
S''
sI86
S'    def __getattr__(self, k):'
p280
sI87
S'        try:'
p281
sI88
S'            return self.__getitem__(k)'
p282
sI89
S'        except KeyError:'
p283
sI90
S'            raise AttributeError'
p284
sI91
S''
sI92
S'    def __copy__(self):'
p285
sI93
S'        return Row(self)'
p286
sI94
S''
ssg82
S"(self=<Row {'state': {'description': '', 'is_active': ...ng', 'year_update': '2017', 'identifier': None}}>, k='id')"
p287
sg84
S'__getattr__'
p288
sasS'pyver'
p289
S'Python 2.7.12: /usr/bin/python (prefix: /usr)'
p290
sS'session'
p291
g56
(S's/\x0b\x00\x00<div><table><tr><td style="font-weight:bold;vertical-align:top;">auth</td><td style="vertical-align:top;">:</td><td><div><table><tr><td style="font-weight:bold;vertical-align:top;">expiration</td><td style="vertical-align:top;">:</td><td><div>3600</div></td></tr><tr><td style="font-weight:bold;vertical-align:top;">hmac_key</td><td style="vertical-align:top;">:</td><td><div>7f10b2f6-ef0e-4bcf-861b-7dc11a8d4a8d</div></td></tr><tr><td style="font-weight:bold;vertical-align:top;">last_visit</td><td style="vertical-align:top;">:</td><td><div>datetime.datetime(2017, 3, 8, 10, 48, 47, 801887)</div></td></tr><tr><td style="font-weight:bold;vertical-align:top;">user</td><td style="vertical-align:top;">:</td><td><div><table><tr><td style="font-weight:bold;vertical-align:top;">categories</td><td style="vertical-align:top;">:</td><td><div><table></table></div></td></tr><tr><td style="font-weight:bold;vertical-align:top;">email</td><td style="vertical-align:top;">:</td><td><div>danilo@upr.edu.cu</div></td></tr><tr><td style="font-weight:bold;vertical-align:top;">first_name</td><td style="vertical-align:top;">:</td><td><div>Danilo</div></td></tr><tr><td style="font-weight:bold;vertical-align:top;">id</td><td style="vertical-align:top;">:</td><td><div>3L</div></td></tr><tr><td style="font-weight:bold;vertical-align:top;">last_name</td><td style="vertical-align:top;">:</td><td><div>Pereda</div></td></tr><tr><td style="font-weight:bold;vertical-align:top;">notification</td><td style="vertical-align:top;">:</td><td><div>True</div></td></tr><tr><td style="font-weight:bold;vertical-align:top;">registration_id</td><td style="vertical-align:top;">:</td><td><div></div></td></tr><tr><td style="font-weight:bold;vertical-align:top;">registration_key</td><td style="vertical-align:top;">:</td><td><div></div></td></tr><tr><td style="font-weight:bold;vertical-align:top;">reset_password_key</td><td style="vertical-align:top;">:</td><td><div></div></td></tr><tr><td style="font-weight:bold;vertical-align:top;">types</td><td style="vertical-align:top;">:</td><td><div><table></table></div></td></tr><tr><td style="font-weight:bold;vertical-align:top;">username</td><td style="vertical-align:top;">:</td><td><div>danilo</div></td></tr></table></div></td></tr><tr><td style="font-weight:bold;vertical-align:top;">user_groups</td><td style="vertical-align:top;">:</td><td><div><table></table></div></td></tr></table></div></td></tr><tr><td style="font-weight:bold;vertical-align:top;">flash</td><td style="vertical-align:top;">:</td><td><div>None</div></td></tr><tr><td style="font-weight:bold;vertical-align:top;">last_orderby</td><td style="vertical-align:top;">:</td><td><div>None</div></td></tr><tr><td style="font-weight:bold;vertical-align:top;">last_query</td><td style="vertical-align:top;">:</td><td><div>db.auth_user.id&gt;0</div></td></tr></table></div>'
tRp292
sS'etype'
p293
S"<type 'exceptions.AttributeError'>"
p294
sS'date'
p295
S'Wed Mar  8 10:51:07 2017'
p296
sS'response'
p297
g56
(S's\xe9$\x00\x00<div><table><tr><td style="font-weight:bold;vertical-align:top;">body</td><td style="vertical-align:top;">:</td><td><div>&lt;cStringIO.StringO object at 0x7f13972ccb20&gt;</div></td></tr><tr><td style="font-weight:bold;vertical-align:top;">cookies</td><td style="vertical-align:top;">:</td><td><div><table><tr><td style="font-weight:bold;vertical-align:top;">session_id_cvrf</td><td style="vertical-align:top;">:</td><td><div>127.0.0.1-48d7102c-bb21-44b8-b79c-6eff6b96df02<table><tr><td style="font-weight:bold;vertical-align:top;">comment</td><td style="vertical-align:top;">:</td><td><div></div></td></tr><tr><td style="font-weight:bold;vertical-align:top;">domain</td><td style="vertical-align:top;">:</td><td><div></div></td></tr><tr><td style="font-weight:bold;vertical-align:top;">expires</td><td style="vertical-align:top;">:</td><td><div></div></td></tr><tr><td style="font-weight:bold;vertical-align:top;">httponly</td><td style="vertical-align:top;">:</td><td><div></div></td></tr><tr><td style="font-weight:bold;vertical-align:top;">max-age</td><td style="vertical-align:top;">:</td><td><div></div></td></tr><tr><td style="font-weight:bold;vertical-align:top;">path</td><td style="vertical-align:top;">:</td><td><div>/</div></td></tr><tr><td style="font-weight:bold;vertical-align:top;">secure</td><td style="vertical-align:top;">:</td><td><div></div></td></tr><tr><td style="font-weight:bold;vertical-align:top;">version</td><td style="vertical-align:top;">:</td><td><div></div></td></tr></table></div></td></tr></table></div></td></tr><tr><td style="font-weight:bold;vertical-align:top;">delimiters</td><td style="vertical-align:top;">:</td><td><div><table><tr><td><div>{{</div></td></tr><tr><td><div>}}</div></td></tr></table></div></td></tr><tr><td style="font-weight:bold;vertical-align:top;">files</td><td style="vertical-align:top;">:</td><td><div><table><tr><td><div>/cvrf/static/js/jquery-3.1.1.min.js</div></td></tr><tr><td><div>/cvrf/static/css/calendar.css</div></td></tr><tr><td><div>/cvrf/static/js/calendar.js</div></td></tr><tr><td><div>/cvrf/static/js/web2py.js</div></td></tr></table></div></td></tr><tr><td style="font-weight:bold;vertical-align:top;">flash</td><td style="vertical-align:top;">:</td><td><div></div></td></tr><tr><td style="font-weight:bold;vertical-align:top;">form_label_separator</td><td style="vertical-align:top;">:</td><td><div></div></td></tr><tr><td style="font-weight:bold;vertical-align:top;">formstyle</td><td style="vertical-align:top;">:</td><td><div>bootstrap3_inline</div></td></tr><tr><td style="font-weight:bold;vertical-align:top;">generic_patterns</td><td style="vertical-align:top;">:</td><td><div><table><tr><td><div>*</div></td></tr></table></div></td></tr><tr><td style="font-weight:bold;vertical-align:top;">google_analytics_id</td><td style="vertical-align:top;">:</td><td><div>None</div></td></tr><tr><td style="font-weight:bold;vertical-align:top;">headers</td><td style="vertical-align:top;">:</td><td><div><table><tr><td style="font-weight:bold;vertical-align:top;">X-Powered-By</td><td style="vertical-align:top;">:</td><td><div>web2py</div></td></tr></table></div></td></tr><tr><td style="font-weight:bold;vertical-align:top;">logo</td><td style="vertical-align:top;">:</td><td><div><h5><a class="navbar-brand-name" data-target="#index" href="/cvrf/default/index" id="index"><img class="logo" src="/cvrf/static/img/favicon.png" /></a></h5></div></td></tr><tr><td style="font-weight:bold;vertical-align:top;">menu</td><td style="vertical-align:top;">:</td><td><div><table><tr><td><div><table><tr><td><div>home</div></td></tr><tr><td><div>False</div></td></tr><tr><td><div><a data-target="#homepage" href="/cvrf/default/index#homepage">Inicio</a></div></td></tr></table></div></td></tr><tr><td><div><table><tr><td><div>services</div></td></tr><tr><td><div>False</div></td></tr><tr><td><div><a data-target="#services" href="/cvrf/default/index#services">Servicios</a></div></td></tr></table></div></td></tr><tr><td><div><table><tr><td><div>about</div></td></tr><tr><td><div>False</div></td></tr><tr><td><div><a data-target="#about" href="/cvrf/default/index#about">Acerca de</a></div></td></tr></table></div></td></tr><tr><td><div><table><tr><td><div>information</div></td></tr><tr><td><div>False</div></td></tr><tr><td><div><a data-target="#information" href="/cvrf/default/index#information">Contact us</a></div></td></tr></table></div></td></tr><tr><td><div><table><tr><td><div>Resource</div></td></tr><tr><td><div>False</div></td></tr><tr><td><div>/cvrf/resource/edites</div></td></tr><tr><td><div><table><tr><td><div><table><tr><td><div>upload</div></td></tr><tr><td><div>False</div></td></tr><tr><td><div><a data-target="#edites" href="/cvrf/resource/edites"><ico class="glyphicon glyphicon-upload"></ico> Upload and edit</a></div></td></tr></table></div></td></tr><tr><td><div><table><tr><td><div>resources</div></td></tr><tr><td><div>False</div></td></tr><tr><td><div><a data-target="#my_briefcase" href="/cvrf/resource/my_briefcase"><ico class="glyphicon glyphicon-briefcase"></ico> My briefcase</a></div></td></tr></table></div></td></tr></table></div></td></tr></table></div></td></tr></table></div></td></tr><tr><td style="font-weight:bold;vertical-align:top;">meta</td><td style="vertical-align:top;">:</td><td><div><table><tr><td style="font-weight:bold;vertical-align:top;">author</td><td style="vertical-align:top;">:</td><td><div>ysantalla@upr.edu.cu</div></td></tr><tr><td style="font-weight:bold;vertical-align:top;">description</td><td style="vertical-align:top;">:</td><td><div>None</div></td></tr><tr><td style="font-weight:bold;vertical-align:top;">generator</td><td style="vertical-align:top;">:</td><td><div>Web2py Web Framework</div></td></tr><tr><td style="font-weight:bold;vertical-align:top;">keywords</td><td style="vertical-align:top;">:</td><td><div>COMUNIDAD</div></td></tr></table></div></td></tr><tr><td style="font-weight:bold;vertical-align:top;">models_to_run</td><td style="vertical-align:top;">:</td><td><div><table><tr><td><div>^\\w+\\.py$</div></td></tr><tr><td><div>^resource/\\w+\\.py$</div></td></tr><tr><td><div>^resource/edites/\\w+\\.py$</div></td></tr></table></div></td></tr><tr><td style="font-weight:bold;vertical-align:top;">optimize_css</td><td style="vertical-align:top;">:</td><td><div>concat,minify,inline</div></td></tr><tr><td style="font-weight:bold;vertical-align:top;">optimize_js</td><td style="vertical-align:top;">:</td><td><div>concat,minify,inline</div></td></tr><tr><td style="font-weight:bold;vertical-align:top;">postprocessing</td><td style="vertical-align:top;">:</td><td><div><table></table></div></td></tr><tr><td style="font-weight:bold;vertical-align:top;">session_client</td><td style="vertical-align:top;">:</td><td><div>127.0.0.1</div></td></tr><tr><td style="font-weight:bold;vertical-align:top;">session_cookie_compression_level</td><td style="vertical-align:top;">:</td><td><div>None</div></td></tr><tr><td style="font-weight:bold;vertical-align:top;">session_cookie_expires</td><td style="vertical-align:top;">:</td><td><div>None</div></td></tr><tr><td style="font-weight:bold;vertical-align:top;">session_data_name</td><td style="vertical-align:top;">:</td><td><div>session_data_cvrf</div></td></tr><tr><td style="font-weight:bold;vertical-align:top;">session_file</td><td style="vertical-align:top;">:</td><td><div>&lt;open file &#x27;/opt/python/web2py/web2py/applications/cvrf/sessions/0f6/11d/127.0.0.1-48d7102c-bb21-44b8-b79c-6eff6b96df02&#x27;, mode &#x27;rb+&#x27; at 0x7f1396ccc5d0&gt;</div></td></tr><tr><td style="font-weight:bold;vertical-align:top;">session_filename</td><td style="vertical-align:top;">:</td><td><div>/opt/python/web2py/web2py/applications/cvrf/sessions/127.0.0.1-48d7102c-bb21-44b8-b79c-6eff6b96df02</div></td></tr><tr><td style="font-weight:bold;vertical-align:top;">session_hash</td><td style="vertical-align:top;">:</td><td><div>77ea6183c573a91dcfefdcae2cd8e69d</div></td></tr><tr><td style="font-weight:bold;vertical-align:top;">session_id</td><td style="vertical-align:top;">:</td><td><div>127.0.0.1-48d7102c-bb21-44b8-b79c-6eff6b96df02</div></td></tr><tr><td style="font-weight:bold;vertical-align:top;">session_id_name</td><td style="vertical-align:top;">:</td><td><div>session_id_cvrf</div></td></tr><tr><td style="font-weight:bold;vertical-align:top;">session_locked</td><td style="vertical-align:top;">:</td><td><div>True</div></td></tr><tr><td style="font-weight:bold;vertical-align:top;">session_masterapp</td><td style="vertical-align:top;">:</td><td><div>cvrf</div></td></tr><tr><td style="font-weight:bold;vertical-align:top;">session_new</td><td style="vertical-align:top;">:</td><td><div>False</div></td></tr><tr><td style="font-weight:bold;vertical-align:top;">session_storage_type</td><td style="vertical-align:top;">:</td><td><div>file</div></td></tr><tr><td style="font-weight:bold;vertical-align:top;">status</td><td style="vertical-align:top;">:</td><td><div>200</div></td></tr><tr><td style="font-weight:bold;vertical-align:top;">subtitle</td><td style="vertical-align:top;">:</td><td><div>COMUNIDAD VIRTUAL DE RECURSOS FORESTALES</div></td></tr><tr><td style="font-weight:bold;vertical-align:top;">title</td><td style="vertical-align:top;">:</td><td><div>Editar | UPR</div></td></tr><tr><td style="font-weight:bold;vertical-align:top;">view</td><td style="vertical-align:top;">:</td><td><div>resource/edites.html</div></td></tr></table></div>'
tRp298
sS'locals'
p299
(dp300
S'k'
S"'id'"
p301
sS'self'
p302
S"<Row {'state': {'description': '', 'is_active': ...ng', 'year_update': '2017', 'identifier': None}}>"
p303
sssS'traceback'
p304
S'Traceback (most recent call last):\n  File "/opt/python/web2py/web2py/gluon/restricted.py", line 227, in restricted\n    exec ccode in environment\n  File "/opt/python/web2py/web2py/applications/cvrf/views/resource/edites.html", line 106, in <module>\n  File "/opt/python/web2py/web2py/gluon/globals.py", line 430, in write\n    self.body.write(xmlescape(data))\n  File "/opt/python/web2py/web2py/gluon/html.py", line 131, in xmlescape\n    return data.xml()\n  File "/opt/python/web2py/web2py/gluon/packages/dal/pydal/objects.py", line 2344, in xml\n    rv = self.db.represent(\'rows_xml\', self)\n  File "/opt/python/web2py/web2py/gluon/packages/dal/pydal/base.py", line 1076, in represent\n    return self.representers[name](*args, **kwargs)\n  File "/opt/python/web2py/web2py/gluon/sqlhtml.py", line 3329, in __init__\n    r = represent(field, r, record)\n  File "/opt/python/web2py/web2py/gluon/sqlhtml.py", line 70, in represent\n    return f(value, record)\n  File "/opt/python/web2py/web2py/applications/cvrf/models/resource/db.py", line 88, in <lambda>\n    db.resource.resource.represent = lambda value, register: A(T(\'Click here for download\'), _href=URL(\'resource\', \'download\', args=[register.id, value]))\n  File "/opt/python/web2py/web2py/gluon/packages/dal/pydal/objects.py", line 90, in __getattr__\n    raise AttributeError\nAttributeError\n'
p305
s.