(dp1
S'output'
p2
S"<type 'exceptions.ValueError'> SELECT  publisher.id, publisher.name, publisher.is_active, publisher.created_on, publisher.created_by, publisher.modified_on, publisher.modified_by FROM publisher WHERE (publisher.id = 2) LIMIT 1 OFFSET 0;"
p3
sS'layer'
p4
S'/opt/python/web2py/web2py/applications/cvrf/views/resource/search_component.load'
p5
sS'code'
p6
S'left_sidebar_enabled=False\nresponse.write(\'\\n\\n<div class="content" style="padding-top: 20px; padding-bottom: 20px;">\\n    <div class="col-lg-3 col-md-3 col-sm-3 col-xs-3">\\n        \', escape=False)\nresponse.write(\'\\n            <div class="panel panel-default affix" style="width: 20.5%; overflow: auto; min-height: 89%; height:89%">\\n                <div class="panel-heading">\\n                  \', escape=False)\nresponse.write(H2(T("Todas las categor\xc3\xadas"), _class="panel-title"))\nresponse.write(\'\\n                </div>\\n                <div class="panel-body">\\n                  \', escape=False)\nresponse.write(MENU(categories, _class="nav", ul_class="nav padding-list"))\nresponse.write(\'\\n                </div>\\n                <div class="panel-heading panel-header-line">\\n                  <h2 class="panel-title">\', escape=False)\nresponse.write(T("Tipos de Recursos"))\nresponse.write(\'</h2>\\n                </div>\\n                <div class="panel-body">\\n                  \', escape=False)\nresponse.write(MENU(types, _class="nav"))\nresponse.write(\'\\n                </div>\\n                <div class="panel-heading panel-header-line">\\n                  <h2 class="panel-title">\', escape=False)\nresponse.write(T("Years"))\nresponse.write(\'</h2>\\n                </div>\\n                <div class="panel-body">\\n                  \', escape=False)\nresponse.write(MENU(years, _class="nav"))\nresponse.write(\'\\n                </div>\\n            </div>\\n        \', escape=False)\nresponse.write(\'\\n    </div>\\n\\n    <div class="col-lg-8 col-md-8 col-sm-8 col-xs-8">\\n        <div class="cvrf_search affix" style="z-index: 5;">\\n            <div class="col-lg-8 col-md-8 col-sm-8 col-xs-8">\\n                \', escape=False)\nresponse.write(FORM(DIV(INPUT(_type=\'hidden\', _name="c", _value=request.vars.c), INPUT(_type=\'hidden\', _name="t", _value=request.vars.t), INPUT(_type=\'hidden\', _name="y", _value=request.vars.y),INPUT(_type=\'hidden\', _name="cid", _value=request.cid), INPUT(_type=\'text\', _name="q", _value=request.vars.q, _id="title", _autocomplete="off", _class="form-control", _placeholder=T(\'Buscar recursos en nuestra Base de Datos\')), CAT(SPAN(INPUT(_type=\'submit\', _value=T("Search"), _class="btn btn-default"), _class="input-group-btn")),  _class="input-group"), _action=URL(\'resource\', \'search_component.load\'), _method=\'get\'))\nresponse.write(\'\\n                \', escape=False)\nresponse.write(DIV(UL(_id="sugerencias", _class="typeahead nav"), _class=""))\nresponse.write(\'\\n            </div>\\n\\n            <div class="col-lg-3 col-md-3 col-sm-3 col-xs-3">\\n                <div class="element-search" style="position: relative; float: left;">\\n                    \', escape=False)\nresponse.write(A(CAT(T("Clear")), _class="btn btn-default", _href=URL(\'resource\', \'search_component.load\'), cid=request.cid))\nresponse.write(\'\\n                    \', escape=False)\nresponse.write(SPAN(CAT(T("Total")," ",count)))\nresponse.write(\'\\n                </div>\\n            </div>\\n        </div>\\n    </div>\\n\\n    <div class="container-fluid container-search" style="padding-top: 70px;">\\n        <div class="col-lg-9 col-md-9 col-sm-9 col-xs-12 col-lg-offset-3 col-md-offset-3 col-sm-offset-3">\\n\\n            \', escape=False)\nif (resources):\n    response.write(\'\\n\\n                    \', escape=False)\n    i=0\n    response.write(\'\\n                    \', escape=False)\n    for resource in resources:\n        response.write(\'\\n                        <div class="row">\\n                            <!--Card-->\\n                            <div class="card-search card wow fadeIn" data-wow-delay="\', escape=False)\n        response.write(i)\n        response.write(\'s">\\n                                <!--Card title-->\\n                                <div class="overlay hm-white-slight">\\n                                    <h3>\', escape=False)\n        response.write(resource.title.upper())\n        response.write(\'\\n                                        \', escape=False)\n        if auth.user:\n            response.write(\'\\n                                            <a class="btn btn-vote float-right" title="\', escape=False)\n            response.write(T(\'Vote\'))\n            response.write(\'" data-toggle="tooltip"  data-placement="left" data-resource="\', escape=False)\n            response.write(resource.id)\n            response.write(\'"><ico class="glyphicon glyphicon-thumbs-up"></ico> \', escape=False)\n            response.write(SPAN(resource.votes, _id=CAT("vote-",resource.id)))\n            response.write(\'</a>\\n                                        \', escape=False)\n        else:\n            response.write(\'\\n                                            <a class="btn float-right" title="\', escape=False)\n            response.write(T(\'Login to vote\'))\n            response.write(\'" data-toggle="tooltip"  data-placement="left"><ico class="glyphicon glyphicon-thumbs-up"></ico> \', escape=False)\n            response.write(SPAN(resource.votes))\n            response.write(\'</a>\\n                                        \', escape=False)\n            pass\n        response.write(\'\\n                                    </h3>\\n                                    <!--Text-->\\n                                    <hr/>\\n                                </div>\\n                                <!--/.Card title-->\\n\\n                                <!--Card content-->\\n                                <div class="card-block text-xs-center">\\n                                    <div class="col-lg-3 col-md-3 col-sm-12 col-xs-12">\\n                                        <figure class="figure figure-text thumbnail">\\n\\n                                           \', escape=False)\n        response.write(IMG(_src=URL(\'resource\', \'download\',args=resource.coverpag), _class="img-rounded"))\n        response.write(\'\\n\\n                                            <figcaption class="figure-caption fig-caption-text">\\n                                                \', escape=False)\n        response.write(A(XML(\'<ico class="glyphicon glyphicon-download"></ico>\'), _title=T(\'Descargar\'), _href=URL(\'resource\', \'download.html\', args=[resource.id, resource.resource]), _class=\'btn btn-success btn-download\', **{"_data-toggle" : "tooltip", "_data-placement": "right", "_data-resource": resource.id}))\n        response.write(\'\\n                                            </figcaption>\\n                                        </figure>\\n                                    </div>\\n\\n                                    <div class="col-lg-9 col-md-9 col-sm-12 col-xs-12">\\n                                        <ul class="nav">\\n                                            \', escape=False)\n        if resource.author:\n            response.write(\'\\n                                                \', escape=False)\n            response.write(LI(H4(CAT(T("By:"), \' \')+\', \'.join(["%s" % k.upper() for k in resource.author]))))\n            response.write(\'\\n                                            \', escape=False)\n            pass\n        response.write(\'\\n\\n                                            \', escape=False)\n        if resource.publisher:\n            response.write(\'\\n                                                \', escape=False)\n            response.write(LI(H4(CAT(T("Publisher:"), \' \', resource.publisher.name.upper()))))\n            response.write(\'\\n                                            \', escape=False)\n            pass\n        response.write(\'\\n\\n                                            \', escape=False)\n        response.write(LI(H4(str("%.2f" % round(resource.size,2))+" "+str(resource.unit))))\n        response.write(\'\\n\\n                                            \', escape=False)\n        if resource.keyword:\n            response.write(\'\\n                                                \', escape=False)\n            response.write(LI(H4(CAT(T("Keywords:"), \' \')+\', \'.join(["%s" % k.upper() for k in resource.keyword]))))\n            response.write(\'\\n                                            \', escape=False)\n            pass\n        response.write(\'\\n\\n                                            \', escape=False)\n        if resource.year:\n            response.write(\'\\n                                                \', escape=False)\n            response.write(LI(H4(CAT(T("Year:"), \' \',resource.year))))\n            response.write(\'\\n                                            \', escape=False)\n            pass\n        response.write(\'\\n                                        </ul>\\n\\n                                        <a class="btn-search btn-visit" data-toggle="collapse" data-visit="true" data-resource="\', escape=False)\n        response.write(resource.id)\n        response.write(\'" data-target="#data-\', escape=False)\n        response.write(resource.id)\n        response.write(\'">\', escape=False)\n        response.write(T("See More"))\n        response.write(\'</a>\\n\\n                                        <div id="data-\', escape=False)\n        response.write(resource.id)\n        response.write(\'" class="collapse" >\\n                                            <ul class="nav">\\n                                                \', escape=False)\n        response.write(LI(XML(resource.description)))\n        response.write(\'\\n\\n                                                \', escape=False)\n        if resource.rtype:\n            response.write(\'\\n                                                    \', escape=False)\n            response.write(LI(H4(CAT(T("Type:"),\' \', resource.rtype.name))))\n            response.write(\'\\n                                                \', escape=False)\n            pass\n        response.write(\'\\n\\n                                                \', escape=False)\n        if resource.created_by:\n            response.write(\'\\n                                                    \', escape=False)\n            response.write(LI(H4(CAT(T("Uploaded by:"),\' \', resource.created_by.username))))\n            response.write(\'\\n                                                \', escape=False)\n            pass\n        response.write(\'\\n\\n                                                \', escape=False)\n        if resource.category:\n            response.write(\'\\n                                                    \', escape=False)\n            response.write(LI(H4(CAT(T("Category:"),\' \', resource.category.name))))\n            response.write(\'\\n                                                \', escape=False)\n            pass\n        response.write(\'\\n\\n                                                \', escape=False)\n        response.write(LI(H4(CAT(T("Visits:"),\' \', SPAN(resource.visits, _id=CAT("visit-",resource.id))))))\n        response.write(\'\\n\\n                                                \', escape=False)\n        response.write(LI(H4(CAT(T("Downloads:"),\' \', SPAN(resource.downloads, _id=CAT("download-",resource.id))))))\n        response.write(\'\\n\\n                                                \', escape=False)\n        if resource.mime_type:\n            response.write(\'\\n                                                    \', escape=False)\n            response.write(LI(H4(CAT(T("Extention:"),\' \', resource.mime_type))))\n            response.write(\'\\n                                                \', escape=False)\n            pass\n        response.write(\'\\n\\n                                            </ul>\\n                                        </div>\\n                                    </div>\\n                                </div>\\n                            </div>\\n                            <!--/.Card content-->\\n                        </div>\\n                        \', escape=False)\n        i=i+0.2\n        response.write(\'\\n\\n                    \', escape=False)\n        pass\n    response.write(\'\\n\\n                    \', escape=False)\n    if count>paginate:\n        response.write(\'\\n                        <div class="row">\\n                            <div class="web2py_paginator col-lg-12 col-md-12 col-sm-12 col-xs-12">\\n                                \', escape=False)\n        response.write(paginator)\n        response.write(\'\\n                            </div>\\n                        </div>\\n                    \', escape=False)\n        pass\n    response.write(\'\\n\\n            \', escape=False)\nelse:\n    response.write(\'\\n                \', escape=False)\n    response.write(DIV(H1(T("No records found")), _class="col-lg-12 col-md-12 col-sm-12 col-xs-12"))\n    response.write(\'\\n            \', escape=False)\n    pass\nresponse.write(\'\\n\\n            <br/>\\n\\n        </div>\\n    </div>\\n</div>\\n\\n\', escape=False)\nresponse.write(\'\\n    \', escape=False)\nresponse.write(\'\\n    <script type="text/javascript">\\n        $(function () {\\n            $("#sugerencias").hide();\\n\\n            $("#title").keyup(function(){\\n                if ($(this).val()){\\n                    $("#sugerencias").show();\\n                } else {\\n                    $("#sugerencias").hide();\\n                }\\n                ajax(\\\'\', escape=False)\nresponse.write(URL("resource","title_selection.html", hmac_key=KEY))\nresponse.write(\'\\\', [\\\'q\\\', \\\'t\\\', \\\'c\\\', \\\'y\\\', \\\'cid\\\'], \\\'sugerencias\\\')\\n            });\\n\\n            $(\\\'[data-toggle="tooltip"]\\\').tooltip();\\n\\n            /*Funci\\xc3\\xb3n que permite contar descargas*/\\n            $(\\\'.btn-download\\\').click(function(event){\\n                $.ajax({\\n                    // la URL para la petici\\xc3\\xb3n\\n                    url : "\', escape=False)\nresponse.write(URL(\'resource\', \'download_component.html\', hmac_key=KEY))\nresponse.write(\'",\\n                    // la informaci\\xc3\\xb3n a enviar\\n                    // (tambi\\xc3\\xa9n es posible utilizar una cadena de datos)\\n                    data : {resource: $(this).attr(\\\'data-resource\\\')},\\n                    // especifica si ser\\xc3\\xa1 una petici\\xc3\\xb3n POST o GET\\n                    type : \\\'POST\\\',\\n                    // el tipo de informaci\\xc3\\xb3n que se espera de respuesta\\n                    dataType : \\\'json\\\',\\n                    // c\\xc3\\xb3digo a ejecutar si la petici\\xc3\\xb3n es satisfactoria;\\n                    // la respuesta es pasada como argumento a la funci\\xc3\\xb3n\\n                    success : function(json) {\\n                        if (json.success){\\n                            $(\\\'#download-\\\'+json.resource).text(json.download);\\n                        }\\n                    },\\n                    // c\\xc3\\xb3digo a ejecutar si la petici\\xc3\\xb3n falla;\\n                    // son pasados como argumentos a la funci\\xc3\\xb3n\\n                    // el objeto de la petici\\xc3\\xb3n en crudo y c\\xc3\\xb3digo de estatus de la petici\\xc3\\xb3n\\n                    error : function(xhr, status) {\\n                        console.log("Error")\\n                    },\\n                    // c\\xc3\\xb3digo a ejecutar sin importar si la petici\\xc3\\xb3n fall\\xc3\\xb3 o no\\n                    complete : function(xhr, status) {\\n                        console.log(\\\'Petici\\xc3\\xb3n realizada\\\');\\n                    }\\n                });\\n            });\\n\\n            \', escape=False)\nif auth.user:\n    response.write(\'\\n                /*Funci\\xc3\\xb3n que permite votar un recurso*/\\n                $(\\\'.btn-vote\\\').click(function(event){\\n                    $.ajax({\\n                        // la URL para la petici\\xc3\\xb3n\\n                        url : "\', escape=False)\n    response.write(URL(\'resource\', \'like_component.html\', user_signature=True))\n    response.write(\'",\\n                        // la informaci\\xc3\\xb3n a enviar\\n                        // (tambi\\xc3\\xa9n es posible utilizar una cadena de datos)\\n                        data : {resource: $(this).attr(\\\'data-resource\\\')},\\n                        // especifica si ser\\xc3\\xa1 una petici\\xc3\\xb3n POST o GET\\n                        type : \\\'POST\\\',\\n                        // el tipo de informaci\\xc3\\xb3n que se espera de respuesta\\n                        dataType : \\\'json\\\',\\n                        // c\\xc3\\xb3digo a ejecutar si la petici\\xc3\\xb3n es satisfactoria;\\n                        // la respuesta es pasada como argumento a la funci\\xc3\\xb3n\\n                        success : function(json) {\\n                            if (json.success){\\n                                $(\\\'#vote-\\\'+json.resource).text(json.votes);\\n                            }\\n                        },\\n                        // c\\xc3\\xb3digo a ejecutar si la petici\\xc3\\xb3n falla;\\n                        // son pasados como argumentos a la funci\\xc3\\xb3n\\n                        // el objeto de la petici\\xc3\\xb3n en crudo y c\\xc3\\xb3digo de estatus de la petici\\xc3\\xb3n\\n                        error : function(xhr, status) {\\n                            console.log("Error")\\n                        },\\n                        // c\\xc3\\xb3digo a ejecutar sin importar si la petici\\xc3\\xb3n fall\\xc3\\xb3 o no\\n                        complete : function(xhr, status) {\\n                            console.log(\\\'Petici\\xc3\\xb3n realizada\\\');\\n                        }\\n                    });\\n                });\\n            \', escape=False)\n    pass\nresponse.write(\'\\n\\n            /*Funci\\xc3\\xb3n que permite contar visits*/\\n            $(\\\'.btn-visit\\\').click(function(event){\\n                if ($(this).attr(\\\'data-visit\\\') == \\\'true\\\'){\\n                    $(this).attr(\\\'data-visit\\\', \\\'false\\\')\\n                    $.ajax({\\n                        // la URL para la petici\\xc3\\xb3n\\n                        url : "\', escape=False)\nresponse.write(URL(\'resource\', \'visit_component.html\', hmac_key=KEY))\nresponse.write(\'",\\n                        // la informaci\\xc3\\xb3n a enviar\\n                        // (tambi\\xc3\\xa9n es posible utilizar una cadena de datos)\\n                        data : {resource: $(this).attr(\\\'data-resource\\\')},\\n                        // especifica si ser\\xc3\\xa1 una petici\\xc3\\xb3n POST o GET\\n                        type : \\\'POST\\\',\\n                        // el tipo de informaci\\xc3\\xb3n que se espera de respuesta\\n                        dataType : \\\'json\\\',\\n                        // c\\xc3\\xb3digo a ejecutar si la petici\\xc3\\xb3n es satisfactoria;\\n                        // la respuesta es pasada como argumento a la funci\\xc3\\xb3n\\n                        success : function(json) {\\n                            if (json.success){\\n                                $(\\\'#visit-\\\'+json.resource).text(json.visit);\\n                            }\\n                        },\\n                        // c\\xc3\\xb3digo a ejecutar si la petici\\xc3\\xb3n falla;\\n                        // son pasados como argumentos a la funci\\xc3\\xb3n\\n                        // el objeto de la petici\\xc3\\xb3n en crudo y c\\xc3\\xb3digo de estatus de la petici\\xc3\\xb3n\\n                        error : function(xhr, status) {\\n                            console.log("Error")\\n                        },\\n                        // c\\xc3\\xb3digo a ejecutar sin importar si la petici\\xc3\\xb3n fall\\xc3\\xb3 o no\\n                        complete : function(xhr, status) {\\n                            console.log(\\\'Petici\\xc3\\xb3n realizada\\\');\\n                        }\\n                    });\\n                } else {\\n                    $(this).attr(\\\'data-visit\\\', \\\'true\\\')\\n                }\\n            });\\n        });\\n    </script>\\n\', escape=False)\nresponse.write(\'\\n\', escape=False)'
p7
sS'snapshot'
p8
(dp9
S'exception'
p10
(dp11
S'__hash__'
p12
S"<method-wrapper '__hash__' of exceptions.ValueError object>"
p13
sS'__setattr__'
p14
S"<method-wrapper '__setattr__' of exceptions.ValueError object>"
p15
sS'__reduce_ex__'
p16
S'<built-in method __reduce_ex__ of exceptions.ValueError object>'
p17
sS'__getslice__'
p18
S"<method-wrapper '__getslice__' of exceptions.ValueError object>"
p19
sS'__getitem__'
p20
S"<method-wrapper '__getitem__' of exceptions.ValueError object>"
p21
sS'__setstate__'
p22
S'<built-in method __setstate__ of exceptions.ValueError object>'
p23
sS'args'
p24
S"('SELECT  publisher.id, publisher.name, publisher....lisher WHERE (publisher.id = 2) LIMIT 1 OFFSET 0;',)"
p25
sS'__reduce__'
p26
S'<built-in method __reduce__ of exceptions.ValueError object>'
p27
sS'__str__'
p28
S"<method-wrapper '__str__' of exceptions.ValueError object>"
p29
sS'__format__'
p30
S'<built-in method __format__ of exceptions.ValueError object>'
p31
sS'__getattribute__'
p32
S"<method-wrapper '__getattribute__' of exceptions.ValueError object>"
p33
sS'__class__'
p34
S"<type 'exceptions.ValueError'>"
p35
sS'__unicode__'
p36
S'<built-in method __unicode__ of exceptions.ValueError object>'
p37
sS'__delattr__'
p38
S"<method-wrapper '__delattr__' of exceptions.ValueError object>"
p39
sS'__subclasshook__'
p40
S'<built-in method __subclasshook__ of type object>'
p41
sS'__repr__'
p42
S"<method-wrapper '__repr__' of exceptions.ValueError object>"
p43
sS'__dict__'
p44
S'{}'
p45
sS'__sizeof__'
p46
S'<built-in method __sizeof__ of exceptions.ValueError object>'
p47
sS'__doc__'
p48
S"'Inappropriate argument value (of correct type).'"
p49
sS'__init__'
p50
S"<method-wrapper '__init__' of exceptions.ValueError object>"
p51
sS'__new__'
p52
S'<built-in method __new__ of type object>'
p53
ssS'evalue'
p54
S'SELECT  publisher.id, publisher.name, publisher.is_active, publisher.created_on, publisher.created_by, publisher.modified_on, publisher.modified_by FROM publisher WHERE (publisher.id = 2) LIMIT 1 OFFSET 0;'
p55
sS'request'
p56
cgluon.html
XML_unpickle
p57
(S'sI_\x00\x00<div><table><tr><td style="font-weight:bold;vertical-align:top;">ajax</td><td style="vertical-align:top;">:</td><td><div>True</div></td></tr><tr><td style="font-weight:bold;vertical-align:top;">application</td><td style="vertical-align:top;">:</td><td><div>cvrf</div></td></tr><tr><td style="font-weight:bold;vertical-align:top;">args</td><td style="vertical-align:top;">:</td><td><div><table></table></div></td></tr><tr><td style="font-weight:bold;vertical-align:top;">cid</td><td style="vertical-align:top;">:</td><td><div>c274226732153</div></td></tr><tr><td style="font-weight:bold;vertical-align:top;">client</td><td style="vertical-align:top;">:</td><td><div>127.0.0.1</div></td></tr><tr><td style="font-weight:bold;vertical-align:top;">controller</td><td style="vertical-align:top;">:</td><td><div>resource</div></td></tr><tr><td style="font-weight:bold;vertical-align:top;">cookies</td><td style="vertical-align:top;">:</td><td><div><table><tr><td style="font-weight:bold;vertical-align:top;">session_id_admin</td><td style="vertical-align:top;">:</td><td><div>127.0.0.1-da590fc7-848f-4de7-a566-f85537d11b6e<table><tr><td style="font-weight:bold;vertical-align:top;">comment</td><td style="vertical-align:top;">:</td><td><div></div></td></tr><tr><td style="font-weight:bold;vertical-align:top;">domain</td><td style="vertical-align:top;">:</td><td><div></div></td></tr><tr><td style="font-weight:bold;vertical-align:top;">expires</td><td style="vertical-align:top;">:</td><td><div></div></td></tr><tr><td style="font-weight:bold;vertical-align:top;">httponly</td><td style="vertical-align:top;">:</td><td><div></div></td></tr><tr><td style="font-weight:bold;vertical-align:top;">max-age</td><td style="vertical-align:top;">:</td><td><div></div></td></tr><tr><td style="font-weight:bold;vertical-align:top;">path</td><td style="vertical-align:top;">:</td><td><div></div></td></tr><tr><td style="font-weight:bold;vertical-align:top;">secure</td><td style="vertical-align:top;">:</td><td><div></div></td></tr><tr><td style="font-weight:bold;vertical-align:top;">version</td><td style="vertical-align:top;">:</td><td><div></div></td></tr></table></div></td></tr><tr><td style="font-weight:bold;vertical-align:top;">session_id_cvrf</td><td style="vertical-align:top;">:</td><td><div>17:7e443fd2-2290-452b-97ed-47e6e09c7343<table><tr><td style="font-weight:bold;vertical-align:top;">comment</td><td style="vertical-align:top;">:</td><td><div></div></td></tr><tr><td style="font-weight:bold;vertical-align:top;">domain</td><td style="vertical-align:top;">:</td><td><div></div></td></tr><tr><td style="font-weight:bold;vertical-align:top;">expires</td><td style="vertical-align:top;">:</td><td><div></div></td></tr><tr><td style="font-weight:bold;vertical-align:top;">httponly</td><td style="vertical-align:top;">:</td><td><div></div></td></tr><tr><td style="font-weight:bold;vertical-align:top;">max-age</td><td style="vertical-align:top;">:</td><td><div></div></td></tr><tr><td style="font-weight:bold;vertical-align:top;">path</td><td style="vertical-align:top;">:</td><td><div></div></td></tr><tr><td style="font-weight:bold;vertical-align:top;">secure</td><td style="vertical-align:top;">:</td><td><div></div></td></tr><tr><td style="font-weight:bold;vertical-align:top;">version</td><td style="vertical-align:top;">:</td><td><div></div></td></tr></table></div></td></tr><tr><td style="font-weight:bold;vertical-align:top;">session_id_welcome</td><td style="vertical-align:top;">:</td><td><div>127.0.0.1-0474aff3-4c87-435a-a498-1d2af291a122<table><tr><td style="font-weight:bold;vertical-align:top;">comment</td><td style="vertical-align:top;">:</td><td><div></div></td></tr><tr><td style="font-weight:bold;vertical-align:top;">domain</td><td style="vertical-align:top;">:</td><td><div></div></td></tr><tr><td style="font-weight:bold;vertical-align:top;">expires</td><td style="vertical-align:top;">:</td><td><div></div></td></tr><tr><td style="font-weight:bold;vertical-align:top;">httponly</td><td style="vertical-align:top;">:</td><td><div></div></td></tr><tr><td style="font-weight:bold;vertical-align:top;">max-age</td><td style="vertical-align:top;">:</td><td><div></div></td></tr><tr><td style="font-weight:bold;vertical-align:top;">path</td><td style="vertical-align:top;">:</td><td><div></div></td></tr><tr><td style="font-weight:bold;vertical-align:top;">secure</td><td style="vertical-align:top;">:</td><td><div></div></td></tr><tr><td style="font-weight:bold;vertical-align:top;">version</td><td style="vertical-align:top;">:</td><td><div></div></td></tr></table></div></td></tr></table></div></td></tr><tr><td style="font-weight:bold;vertical-align:top;">env</td><td style="vertical-align:top;">:</td><td><div><table><tr><td style="font-weight:bold;vertical-align:top;">HTTP_ACCEPT</td><td style="vertical-align:top;">:</td><td><div>*/*</div></td></tr><tr><td style="font-weight:bold;vertical-align:top;">HTTP_ACCEPT_ENCODING</td><td style="vertical-align:top;">:</td><td><div>gzip, deflate, sdch, br</div></td></tr><tr><td style="font-weight:bold;vertical-align:top;">HTTP_ACCEPT_LANGUAGE</td><td style="vertical-align:top;">:</td><td><div>es-ES,es;q=0.8</div></td></tr><tr><td style="font-weight:bold;vertical-align:top;">HTTP_CONNECTION</td><td style="vertical-align:top;">:</td><td><div>keep-alive</div></td></tr><tr><td style="font-weight:bold;vertical-align:top;">HTTP_COOKIE</td><td style="vertical-align:top;">:</td><td><div>session_id_welcome=127.0.0.1-0474aff3-4c87-435a-a498-1d2af291a122; session_id_admin=127.0.0.1-da590fc7-848f-4de7-a566-f85537d11b6e; session_id_cvrf=&quot;17:7e443fd2-2290-452b-97ed-47e6e09c7343&quot;</div></td></tr><tr><td style="font-weight:bold;vertical-align:top;">HTTP_HOST</td><td style="vertical-align:top;">:</td><td><div>127.0.0.1:8000</div></td></tr><tr><td style="font-weight:bold;vertical-align:top;">HTTP_REFERER</td><td style="vertical-align:top;">:</td><td><div>http://127.0.0.1:8000/cvrf/resource/search</div></td></tr><tr><td style="font-weight:bold;vertical-align:top;">HTTP_USER_AGENT</td><td style="vertical-align:top;">:</td><td><div>Mozilla/5.0 (X11; Linux x86_64) AppleWebKit/537.36 (KHTML, like Gecko) Ubuntu Chromium/56.0.2924.76 Chrome/56.0.2924.76 Safari/537.36</div></td></tr><tr><td style="font-weight:bold;vertical-align:top;">HTTP_WEB2PY_COMPONENT_ELEMENT</td><td style="vertical-align:top;">:</td><td><div>c274226732153</div></td></tr><tr><td style="font-weight:bold;vertical-align:top;">HTTP_WEB2PY_COMPONENT_LOCATION</td><td style="vertical-align:top;">:</td><td><div>http://127.0.0.1:8000/cvrf/resource/search#</div></td></tr><tr><td style="font-weight:bold;vertical-align:top;">HTTP_X_REQUESTED_WITH</td><td style="vertical-align:top;">:</td><td><div>XMLHttpRequest</div></td></tr><tr><td style="font-weight:bold;vertical-align:top;">PATH_INFO</td><td style="vertical-align:top;">:</td><td><div>/cvrf/resource/search_component.load</div></td></tr><tr><td style="font-weight:bold;vertical-align:top;">QUERY_STRING</td><td style="vertical-align:top;">:</td><td><div>_signature=2b59a9526ec8d59fdf90f3c38a807855daec591a</div></td></tr><tr><td style="font-weight:bold;vertical-align:top;">REMOTE_ADDR</td><td style="vertical-align:top;">:</td><td><div>127.0.0.1</div></td></tr><tr><td style="font-weight:bold;vertical-align:top;">REMOTE_PORT</td><td style="vertical-align:top;">:</td><td><div>53866</div></td></tr><tr><td style="font-weight:bold;vertical-align:top;">REQUEST_METHOD</td><td style="vertical-align:top;">:</td><td><div>GET</div></td></tr><tr><td style="font-weight:bold;vertical-align:top;">SCRIPT_NAME</td><td style="vertical-align:top;">:</td><td><div></div></td></tr><tr><td style="font-weight:bold;vertical-align:top;">SERVER_NAME</td><td style="vertical-align:top;">:</td><td><div>yasmany-tp500lab</div></td></tr><tr><td style="font-weight:bold;vertical-align:top;">SERVER_PORT</td><td style="vertical-align:top;">:</td><td><div>8000</div></td></tr><tr><td style="font-weight:bold;vertical-align:top;">SERVER_PROTOCOL</td><td style="vertical-align:top;">:</td><td><div>HTTP/1.1</div></td></tr><tr><td style="font-weight:bold;vertical-align:top;">SERVER_SOFTWARE</td><td style="vertical-align:top;">:</td><td><div>Rocket 1.2.6</div></td></tr><tr><td style="font-weight:bold;vertical-align:top;">app_folders</td><td style="vertical-align:top;">:</td><td><div>set([&#x27;/opt/python/web2py/web2py/applications/cvrf/&#x27;, &#x27;/opt/python/web2py/web2py/applications/admin/&#x27;, &#x27;/opt/python/web2py/web2py/applications/welcome/&#x27;])</div></td></tr><tr><td style="font-weight:bold;vertical-align:top;">applications_parent</td><td style="vertical-align:top;">:</td><td><div>/opt/python/web2py/web2py</div></td></tr><tr><td style="font-weight:bold;vertical-align:top;">cmd_args</td><td style="vertical-align:top;">:</td><td><div><table></table></div></td></tr><tr><td style="font-weight:bold;vertical-align:top;">cmd_options</td><td style="vertical-align:top;">:</td><td><div>&lt;Values at 0x7ff11b8d8e60: {&#x27;verbose&#x27;: False, &#x27;ip&#x27;: &#x27;127.0.0.1&#x27;, &#x27;debuglevel&#x27;: 30, &#x27;with_scheduler&#x27;: False, &#x27;shutdown_timeout&#x27;: 5, &#x27;taskbar&#x27;: False, &#x27;with_coverage&#x27;: False, &#x27;pid_filename&#x27;: &#x27;httpserver.pid&#x27;, &#x27;maxthreads&#x27;: None, &#x27;softcron&#x27;: False, &#x27;server_name&#x27;: &#x27;yasmany-tp500lab&#x27;, &#x27;bpython&#x27;: False, &#x27;nogui&#x27;: False, &#x27;port&#x27;: 8000, &#x27;print_errors&#x27;: False, &#x27;extcron&#x27;: False, &#x27;runcron&#x27;: False, &#x27;run_system_tests&#x27;: False, &#x27;test&#x27;: None, &#x27;folder&#x27;: &#x27;/opt/python/web2py/web2py&#x27;, &#x27;config&#x27;: &#x27;&#x27;, &#x27;minthreads&#x27;: None, &#x27;shell&#x27;: None, &#x27;run&#x27;: &#x27;&#x27;, &#x27;log_filename&#x27;: &#x27;httpserver.log&#x27;, &#x27;profiler_dir&#x27;: None, &#x27;args&#x27;: [&#x27;&#x27;], &#x27;socket_timeout&#x27;: 5, &#x27;ssl_ca_certificate&#x27;: None, &#x27;scheduler&#x27;: None, &#x27;interfaces&#x27;: None, &#x27;ssl_private_key&#x27;: &#x27;&#x27;, &#x27;gae&#x27;: None, &#x27;password&#x27;: &#x27;******&#x27;, &#x27;request_queue_size&#x27;: 5, &#x27;ssl_certificate&#x27;: &#x27;&#x27;, &#x27;cronjob&#x27;: False, &#x27;numthreads&#x27;: None, &#x27;quiet&#x27;: False, &#x27;import_models&#x27;: False, &#x27;timeout&#x27;: 10, &#x27;plain&#x27;: False, &#x27;nobanner&#x27;: False}&gt;</div></td></tr><tr><td style="font-weight:bold;vertical-align:top;">db_sessions</td><td style="vertical-align:top;">:</td><td><div>set([&#x27;cvrf&#x27;])</div></td></tr><tr><td style="font-weight:bold;vertical-align:top;">debugging</td><td style="vertical-align:top;">:</td><td><div>True</div></td></tr><tr><td style="font-weight:bold;vertical-align:top;">gluon_parent</td><td style="vertical-align:top;">:</td><td><div>/opt/python/web2py/web2py</div></td></tr><tr><td style="font-weight:bold;vertical-align:top;">http_accept</td><td style="vertical-align:top;">:</td><td><div>*/*</div></td></tr><tr><td style="font-weight:bold;vertical-align:top;">http_accept_encoding</td><td style="vertical-align:top;">:</td><td><div>gzip, deflate, sdch, br</div></td></tr><tr><td style="font-weight:bold;vertical-align:top;">http_accept_language</td><td style="vertical-align:top;">:</td><td><div>es-ES,es;q=0.8</div></td></tr><tr><td style="font-weight:bold;vertical-align:top;">http_connection</td><td style="vertical-align:top;">:</td><td><div>keep-alive</div></td></tr><tr><td style="font-weight:bold;vertical-align:top;">http_cookie</td><td style="vertical-align:top;">:</td><td><div>session_id_welcome=127.0.0.1-0474aff3-4c87-435a-a498-1d2af291a122; session_id_admin=127.0.0.1-da590fc7-848f-4de7-a566-f85537d11b6e; session_id_cvrf=&quot;17:7e443fd2-2290-452b-97ed-47e6e09c7343&quot;</div></td></tr><tr><td style="font-weight:bold;vertical-align:top;">http_host</td><td style="vertical-align:top;">:</td><td><div>127.0.0.1:8000</div></td></tr><tr><td style="font-weight:bold;vertical-align:top;">http_referer</td><td style="vertical-align:top;">:</td><td><div>http://127.0.0.1:8000/cvrf/resource/search</div></td></tr><tr><td style="font-weight:bold;vertical-align:top;">http_user_agent</td><td style="vertical-align:top;">:</td><td><div>Mozilla/5.0 (X11; Linux x86_64) AppleWebKit/537.36 (KHTML, like Gecko) Ubuntu Chromium/56.0.2924.76 Chrome/56.0.2924.76 Safari/537.36</div></td></tr><tr><td style="font-weight:bold;vertical-align:top;">http_web2py_component_element</td><td style="vertical-align:top;">:</td><td><div>c274226732153</div></td></tr><tr><td style="font-weight:bold;vertical-align:top;">http_web2py_component_location</td><td style="vertical-align:top;">:</td><td><div>http://127.0.0.1:8000/cvrf/resource/search#</div></td></tr><tr><td style="font-weight:bold;vertical-align:top;">http_x_requested_with</td><td style="vertical-align:top;">:</td><td><div>XMLHttpRequest</div></td></tr><tr><td style="font-weight:bold;vertical-align:top;">is_jython</td><td style="vertical-align:top;">:</td><td><div>False</div></td></tr><tr><td style="font-weight:bold;vertical-align:top;">is_pypy</td><td style="vertical-align:top;">:</td><td><div>False</div></td></tr><tr><td style="font-weight:bold;vertical-align:top;">is_source</td><td style="vertical-align:top;">:</td><td><div>True</div></td></tr><tr><td style="font-weight:bold;vertical-align:top;">local_hosts</td><td style="vertical-align:top;">:</td><td><div><table><tr><td><div>yasmany-tp500lab</div></td></tr><tr><td><div>127.0.1.1</div></td></tr><tr><td><div>::ffff:127.0.0.1</div></td></tr><tr><td><div>::1</div></td></tr><tr><td><div>yasmany-TP500LAB</div></td></tr><tr><td><div>127.0.0.1</div></td></tr></table></div></td></tr><tr><td style="font-weight:bold;vertical-align:top;">path_info</td><td style="vertical-align:top;">:</td><td><div>/cvrf/resource/search_component.load</div></td></tr><tr><td style="font-weight:bold;vertical-align:top;">query_string</td><td style="vertical-align:top;">:</td><td><div>_signature=2b59a9526ec8d59fdf90f3c38a807855daec591a</div></td></tr><tr><td style="font-weight:bold;vertical-align:top;">remote_addr</td><td style="vertical-align:top;">:</td><td><div>127.0.0.1</div></td></tr><tr><td style="font-weight:bold;vertical-align:top;">remote_port</td><td style="vertical-align:top;">:</td><td><div>53866</div></td></tr><tr><td style="font-weight:bold;vertical-align:top;">request_method</td><td style="vertical-align:top;">:</td><td><div>GET</div></td></tr><tr><td style="font-weight:bold;vertical-align:top;">request_uri</td><td style="vertical-align:top;">:</td><td><div>/cvrf/resource/search_component.load?_signature=2b59a9526ec8d59fdf90f3c38a807855daec591a</div></td></tr><tr><td style="font-weight:bold;vertical-align:top;">script_name</td><td style="vertical-align:top;">:</td><td><div></div></td></tr><tr><td style="font-weight:bold;vertical-align:top;">server_name</td><td style="vertical-align:top;">:</td><td><div>yasmany-tp500lab</div></td></tr><tr><td style="font-weight:bold;vertical-align:top;">server_port</td><td style="vertical-align:top;">:</td><td><div>8000</div></td></tr><tr><td style="font-weight:bold;vertical-align:top;">server_protocol</td><td style="vertical-align:top;">:</td><td><div>HTTP/1.1</div></td></tr><tr><td style="font-weight:bold;vertical-align:top;">server_software</td><td style="vertical-align:top;">:</td><td><div>Rocket 1.2.6</div></td></tr><tr><td style="font-weight:bold;vertical-align:top;">web2py_path</td><td style="vertical-align:top;">:</td><td><div>/opt/python/web2py/web2py</div></td></tr><tr><td style="font-weight:bold;vertical-align:top;">web2py_version</td><td style="vertical-align:top;">:</td><td><div>2.14.6-stable+timestamp.2016.05.10.00.21.47</div></td></tr><tr><td style="font-weight:bold;vertical-align:top;">wsgi.errors</td><td style="vertical-align:top;">:</td><td><div>&lt;open file &#x27;&lt;stderr&gt;&#x27;, mode &#x27;w&#x27; at 0x7ff122b8e1e0&gt;</div></td></tr><tr><td style="font-weight:bold;vertical-align:top;">wsgi.file_wrapper</td><td style="vertical-align:top;">:</td><td><div>&lt;class wsgiref.util.FileWrapper at 0x7ff11b969f58&gt;</div></td></tr><tr><td style="font-weight:bold;vertical-align:top;">wsgi.input</td><td style="vertical-align:top;">:</td><td><div>&lt;socket._fileobject object at 0x7ff0d462eed0&gt;</div></td></tr><tr><td style="font-weight:bold;vertical-align:top;">wsgi.multiprocess</td><td style="vertical-align:top;">:</td><td><div>False</div></td></tr><tr><td style="font-weight:bold;vertical-align:top;">wsgi.multithread</td><td style="vertical-align:top;">:</td><td><div>True</div></td></tr><tr><td style="font-weight:bold;vertical-align:top;">wsgi.run_once</td><td style="vertical-align:top;">:</td><td><div>False</div></td></tr><tr><td style="font-weight:bold;vertical-align:top;">wsgi.url_scheme</td><td style="vertical-align:top;">:</td><td><div>http</div></td></tr><tr><td style="font-weight:bold;vertical-align:top;">wsgi.version</td><td style="vertical-align:top;">:</td><td><div><table><tr><td><div>1</div></td></tr><tr><td><div>0</div></td></tr></table></div></td></tr><tr><td style="font-weight:bold;vertical-align:top;">wsgi_errors</td><td style="vertical-align:top;">:</td><td><div>&lt;open file &#x27;&lt;stderr&gt;&#x27;, mode &#x27;w&#x27; at 0x7ff122b8e1e0&gt;</div></td></tr><tr><td style="font-weight:bold;vertical-align:top;">wsgi_file_wrapper</td><td style="vertical-align:top;">:</td><td><div>&lt;class wsgiref.util.FileWrapper at 0x7ff11b969f58&gt;</div></td></tr><tr><td style="font-weight:bold;vertical-align:top;">wsgi_input</td><td style="vertical-align:top;">:</td><td><div>&lt;socket._fileobject object at 0x7ff0d462eed0&gt;</div></td></tr><tr><td style="font-weight:bold;vertical-align:top;">wsgi_multiprocess</td><td style="vertical-align:top;">:</td><td><div>False</div></td></tr><tr><td style="font-weight:bold;vertical-align:top;">wsgi_multithread</td><td style="vertical-align:top;">:</td><td><div>True</div></td></tr><tr><td style="font-weight:bold;vertical-align:top;">wsgi_run_once</td><td style="vertical-align:top;">:</td><td><div>False</div></td></tr><tr><td style="font-weight:bold;vertical-align:top;">wsgi_url_scheme</td><td style="vertical-align:top;">:</td><td><div>http</div></td></tr><tr><td style="font-weight:bold;vertical-align:top;">wsgi_version</td><td style="vertical-align:top;">:</td><td><div><table><tr><td><div>1</div></td></tr><tr><td><div>0</div></td></tr></table></div></td></tr></table></div></td></tr><tr><td style="font-weight:bold;vertical-align:top;">extension</td><td style="vertical-align:top;">:</td><td><div>load</div></td></tr><tr><td style="font-weight:bold;vertical-align:top;">folder</td><td style="vertical-align:top;">:</td><td><div>/opt/python/web2py/web2py/applications/cvrf/</div></td></tr><tr><td style="font-weight:bold;vertical-align:top;">function</td><td style="vertical-align:top;">:</td><td><div>search_component</div></td></tr><tr><td style="font-weight:bold;vertical-align:top;">global_settings</td><td style="vertical-align:top;">:</td><td><div><table><tr><td style="font-weight:bold;vertical-align:top;">app_folders</td><td style="vertical-align:top;">:</td><td><div>set([&#x27;/opt/python/web2py/web2py/applications/cvrf/&#x27;, &#x27;/opt/python/web2py/web2py/applications/admin/&#x27;, &#x27;/opt/python/web2py/web2py/applications/welcome/&#x27;])</div></td></tr><tr><td style="font-weight:bold;vertical-align:top;">applications_parent</td><td style="vertical-align:top;">:</td><td><div>/opt/python/web2py/web2py</div></td></tr><tr><td style="font-weight:bold;vertical-align:top;">cmd_args</td><td style="vertical-align:top;">:</td><td><div><table></table></div></td></tr><tr><td style="font-weight:bold;vertical-align:top;">cmd_options</td><td style="vertical-align:top;">:</td><td><div>&lt;Values at 0x7ff11b8d8e60: {&#x27;verbose&#x27;: False, &#x27;ip&#x27;: &#x27;127.0.0.1&#x27;, &#x27;debuglevel&#x27;: 30, &#x27;with_scheduler&#x27;: False, &#x27;shutdown_timeout&#x27;: 5, &#x27;taskbar&#x27;: False, &#x27;with_coverage&#x27;: False, &#x27;pid_filename&#x27;: &#x27;httpserver.pid&#x27;, &#x27;maxthreads&#x27;: None, &#x27;softcron&#x27;: False, &#x27;server_name&#x27;: &#x27;yasmany-tp500lab&#x27;, &#x27;bpython&#x27;: False, &#x27;nogui&#x27;: False, &#x27;port&#x27;: 8000, &#x27;print_errors&#x27;: False, &#x27;extcron&#x27;: False, &#x27;runcron&#x27;: False, &#x27;run_system_tests&#x27;: False, &#x27;test&#x27;: None, &#x27;folder&#x27;: &#x27;/opt/python/web2py/web2py&#x27;, &#x27;config&#x27;: &#x27;&#x27;, &#x27;minthreads&#x27;: None, &#x27;shell&#x27;: None, &#x27;run&#x27;: &#x27;&#x27;, &#x27;log_filename&#x27;: &#x27;httpserver.log&#x27;, &#x27;profiler_dir&#x27;: None, &#x27;args&#x27;: [&#x27;&#x27;], &#x27;socket_timeout&#x27;: 5, &#x27;ssl_ca_certificate&#x27;: None, &#x27;scheduler&#x27;: None, &#x27;interfaces&#x27;: None, &#x27;ssl_private_key&#x27;: &#x27;&#x27;, &#x27;gae&#x27;: None, &#x27;password&#x27;: &#x27;******&#x27;, &#x27;request_queue_size&#x27;: 5, &#x27;ssl_certificate&#x27;: &#x27;&#x27;, &#x27;cronjob&#x27;: False, &#x27;numthreads&#x27;: None, &#x27;quiet&#x27;: False, &#x27;import_models&#x27;: False, &#x27;timeout&#x27;: 10, &#x27;plain&#x27;: False, &#x27;nobanner&#x27;: False}&gt;</div></td></tr><tr><td style="font-weight:bold;vertical-align:top;">db_sessions</td><td style="vertical-align:top;">:</td><td><div>set([&#x27;cvrf&#x27;])</div></td></tr><tr><td style="font-weight:bold;vertical-align:top;">debugging</td><td style="vertical-align:top;">:</td><td><div>True</div></td></tr><tr><td style="font-weight:bold;vertical-align:top;">gluon_parent</td><td style="vertical-align:top;">:</td><td><div>/opt/python/web2py/web2py</div></td></tr><tr><td style="font-weight:bold;vertical-align:top;">is_jython</td><td style="vertical-align:top;">:</td><td><div>False</div></td></tr><tr><td style="font-weight:bold;vertical-align:top;">is_pypy</td><td style="vertical-align:top;">:</td><td><div>False</div></td></tr><tr><td style="font-weight:bold;vertical-align:top;">is_source</td><td style="vertical-align:top;">:</td><td><div>True</div></td></tr><tr><td style="font-weight:bold;vertical-align:top;">local_hosts</td><td style="vertical-align:top;">:</td><td><div><table><tr><td><div>yasmany-tp500lab</div></td></tr><tr><td><div>127.0.1.1</div></td></tr><tr><td><div>::ffff:127.0.0.1</div></td></tr><tr><td><div>::1</div></td></tr><tr><td><div>yasmany-TP500LAB</div></td></tr><tr><td><div>127.0.0.1</div></td></tr></table></div></td></tr><tr><td style="font-weight:bold;vertical-align:top;">web2py_version</td><td style="vertical-align:top;">:</td><td><div>2.14.6-stable+timestamp.2016.05.10.00.21.47</div></td></tr></table></div></td></tr><tr><td style="font-weight:bold;vertical-align:top;">is_https</td><td style="vertical-align:top;">:</td><td><div>False</div></td></tr><tr><td style="font-weight:bold;vertical-align:top;">is_local</td><td style="vertical-align:top;">:</td><td><div>True</div></td></tr><tr><td style="font-weight:bold;vertical-align:top;">is_restful</td><td style="vertical-align:top;">:</td><td><div>False</div></td></tr><tr><td style="font-weight:bold;vertical-align:top;">is_scheduler</td><td style="vertical-align:top;">:</td><td><div>False</div></td></tr><tr><td style="font-weight:bold;vertical-align:top;">is_shell</td><td style="vertical-align:top;">:</td><td><div>False</div></td></tr><tr><td style="font-weight:bold;vertical-align:top;">now</td><td style="vertical-align:top;">:</td><td><div>datetime.datetime(2017, 3, 21, 10, 42, 25, 487392)</div></td></tr><tr><td style="font-weight:bold;vertical-align:top;">raw_args</td><td style="vertical-align:top;">:</td><td><div></div></td></tr><tr><td style="font-weight:bold;vertical-align:top;">raw_extension</td><td style="vertical-align:top;">:</td><td><div>load</div></td></tr><tr><td style="font-weight:bold;vertical-align:top;">url</td><td style="vertical-align:top;">:</td><td><div>/cvrf/resource/search_component.load</div></td></tr><tr><td style="font-weight:bold;vertical-align:top;">utcnow</td><td style="vertical-align:top;">:</td><td><div>datetime.datetime(2017, 3, 21, 14, 42, 25, 487413)</div></td></tr><tr><td style="font-weight:bold;vertical-align:top;">wsgi</td><td style="vertical-align:top;">:</td><td><div>&lt;gluon.main.LazyWSGI object at 0x7ff0d4879790&gt;</div></td></tr></table></div>'
tRp58
sS'frames'
p59
(lp60
(dp61
S'file'
p62
S'/opt/python/web2py/web2py/gluon/restricted.py'
p63
sS'dump'
p64
(dp65
S'environment'
p66
S"{'A': <class 'gluon.html.A'>, 'ANY_OF': <class 'gluon.validators.ANY_OF'>, 'ASSIGNJS': <function ASSIGNJS>, 'AppConfig': <function AppConfig>, 'Auth': <class 'gluon.tools.Auth'>, 'B': <class 'gluon.html.B'>, 'BEAUTIFY': <class 'gluon.html.BEAUTIFY'>, 'BODY': <class 'gluon.html.BODY'>, 'BR': <class 'gluon.html.BR'>, 'BUTTON': <class 'gluon.html.BUTTON'>, ...}"
p67
sS'ccode'
p68
S'<code object <module> at 0x7ff1081bd3b0, file "/...rf/views/resource/search_component.load", line 1>'
p69
ssS'lnum'
p70
I227
sS'lines'
p71
(dp72
I224
S'            ccode = code'
p73
sI225
S'        else:'
p74
sI226
S'            ccode = compile2(code, layer)'
p75
sI227
S'        exec ccode in environment'
p76
sI228
S'    except HTTP:'
p77
sI229
S'        raise'
p78
sI230
S'    except RestrictedError:'
p79
sI231
S'        # do not encapsulate (obfuscate) the original RestrictedError'
p80
sI222
S'    try:'
p81
sI223
S'        if isinstance(code, types.CodeType):'
p82
ssS'call'
p83
S'(code="left_sidebar_enabled=False\\nresponse.write(\'\\\\n\\\\n<... escape=False)\\nresponse.write(\'\\\\n\', escape=False)", environment={\'A\': <class \'gluon.html.A\'>, \'ANY_OF\': <class \'gluon.validators.ANY_OF\'>, \'ASSIGNJS\': <function ASSIGNJS>, \'AppConfig\': <function AppConfig>, \'Auth\': <class \'gluon.tools.Auth\'>, \'B\': <class \'gluon.html.B\'>, \'BEAUTIFY\': <class \'gluon.html.BEAUTIFY\'>, \'BODY\': <class \'gluon.html.BODY\'>, \'BR\': <class \'gluon.html.BR\'>, \'BUTTON\': <class \'gluon.html.BUTTON\'>, ...}, layer=\'/opt/python/web2py/web2py/applications/cvrf/views/resource/search_component.load\')'
p84
sS'func'
p85
S'restricted'
p86
sa(dp87
g62
S'/opt/python/web2py/web2py/applications/cvrf/views/resource/search_component.load'
p88
sg64
(dp89
S'h3'
p90
S'undefined'
p91
ssg70
I63
sg71
(dp92
I64
S'                                    <!--Text-->'
p93
sI65
S'                                    <hr/>'
p94
sI66
S'                                </div>'
p95
sI67
S'                                <!--/.Card title-->'
p96
sI58
S'                                        {{if auth.user:}}'
p97
sI59
S'                                            <a class="btn btn-vote float-right" title="{{=T(\'Vote\')}}" data-toggle="tooltip"  data-placement="left" data-resource="{{=resource.id}}"><ico class="glyphicon glyphicon-thumbs-up"></ico> {{=SPAN(resource.votes, _id=CAT("vote-",resource.id))}}</a>'
p98
sI60
S'                                        {{else:}}'
p99
sI61
S'                                            <a class="btn float-right" title="{{=T(\'Login to vote\')}}" data-toggle="tooltip"  data-placement="left"><ico class="glyphicon glyphicon-thumbs-up"></ico> {{=SPAN(resource.votes)}}</a>'
p100
sI62
S'                                        {{pass}}'
p101
sI63
S'                                    </h3>'
p102
ssg83
S'()'
p103
sg85
S'<module>'
p104
sa(dp105
g62
S'/opt/python/web2py/web2py/gluon/packages/dal/pydal/helpers/classes.py'
p106
sg64
(dp107
S'self'
p108
S'2L'
p109
sS'self.__allocate'
p110
S'None'
p111
ssg70
I107
sg71
(dp112
I102
S''
sI103
S'    def __getattr__(self, key):'
p113
sI104
S"        if key == 'id':"
p114
sI105
S'            return long(self)'
p115
sI106
S'        if key in self._table:'
p116
sI107
S'            self.__allocate()'
p117
sI108
S'        if self._record:'
p118
sI109
S'            # to deal with case self.update_record()'
p119
sI110
S'            return self._record.get(key, None)'
p120
sI111
S'        else:'
p121
ssg83
S"(self=2L, key='name')"
p122
sg85
S'__getattr__'
p123
sa(dp124
g62
S'/opt/python/web2py/web2py/gluon/packages/dal/pydal/helpers/classes.py'
p125
sg64
(dp126
S'global long'
p127
S"<type 'long'>"
p128
sS'self'
p129
S'2L'
p130
sS'self._record'
p131
S'None'
p132
sS'self._table'
p133
S'<Table publisher (id, name, is_active, created_on, created_by, modified_on, modified_by)>'
p134
ssg70
I96
sg71
(dp135
I96
S'            self._record = self._table[long(self)]'
p136
sI97
S'        if not self._record:'
p137
sI98
S'            raise RuntimeError('
p138
sI99
S'                "Using a recursive select but encountered a broken " +'
p139
sI100
S'                "reference: %s %d" % (self._table, long(self))'
p140
sI91
S''
sI92
S''
sI93
S'class Reference(long):'
p141
sI94
S'    def __allocate(self):'
p142
sI95
S'        if not self._record:'
p143
ssg83
S'(self=2L)'
p144
sg85
S'__allocate'
p145
sa(dp146
g62
S'/opt/python/web2py/web2py/gluon/packages/dal/pydal/objects.py'
p147
sg64
(dp148
S'orderby_on_limitby'
p149
g91
sS'builtinFalse'
p150
S'False'
p151
ssg70
I504
sg71
(dp152
I499
S'            except:'
p153
sI500
S'                isgoogle = False'
p154
sI501
S'            if str(key).isdigit() or isgoogle:'
p155
sI502
S'                return self._db(self._id == key).select('
p156
sI503
S'                    limitby=(0, 1),'
p157
sI504
S'                    orderby_on_limitby=False'
p158
sI505
S'                ).first()'
p159
sI506
S'            else:'
p160
sI507
S'                try:'
p161
sI508
S'                    return getattr(self, key)'
p162
ssg83
S'(self=<Table publisher (id, name, is_active, created_on, created_by, modified_on, modified_by)>, key=2L)'
p163
sg85
g20
sa(dp164
g62
S'/opt/python/web2py/web2py/gluon/packages/dal/pydal/objects.py'
p165
sg64
(dp166
S'self.query'
p167
S'<Query (publisher.id = 2)>'
p168
sS'adapter.select'
p169
S'<bound method SQLiteAdapter.select of <pydal.adapters.sqlite.SQLiteAdapter object>>'
p170
sS'fields'
p171
S'[<pydal.objects.Field object>, <pydal.objects.Field object>, <pydal.objects.Field object>, <pydal.objects.Field object>, <pydal.objects.Field object>, <pydal.objects.Field object>, <pydal.objects.Field object>]'
p172
sS'adapter'
p173
S'<pydal.adapters.sqlite.SQLiteAdapter object>'
p174
sS'attributes'
p175
S"{'limitby': (0, 1), 'orderby_on_limitby': False}"
p176
sS'self'
p177
S'<Set (publisher.id = 2)>'
p178
ssg70
I2020
sg71
(dp179
I2016
S"                                    attributes.get('left', None),"
p180
sI2017
S"                                    attributes.get('orderby', None),"
p181
sI2018
S"                                    attributes.get('groupby', None))"
p182
sI2019
S'        fields = adapter.expand_all(fields, tablenames)'
p183
sI2020
S'        return adapter.select(self.query, fields, attributes)'
p184
sI2021
S''
sI2022
S'    def iterselect(self, *fields, **attributes):'
p185
sI2023
S'        adapter = self.db._adapter'
p186
sI2024
S'        tablenames = adapter.tables(self.query,'
p187
sI2015
S"                                    attributes.get('join', None),"
p188
ssg83
S"(self=<Set (publisher.id = 2)>, *fields=[<pydal.objects.Field object>, <pydal.objects.Field object>, <pydal.objects.Field object>, <pydal.objects.Field object>, <pydal.objects.Field object>, <pydal.objects.Field object>, <pydal.objects.Field object>], **attributes={'limitby': (0, 1), 'orderby_on_limitby': False})"
p189
sg85
S'select'
p190
sa(dp191
g62
S'/opt/python/web2py/web2py/gluon/packages/dal/pydal/adapters/sqlite.py'
p192
sg64
(dp193
S'fields'
p194
S'[<pydal.objects.Field object>, <pydal.objects.Field object>, <pydal.objects.Field object>, <pydal.objects.Field object>, <pydal.objects.Field object>, <pydal.objects.Field object>, <pydal.objects.Field object>]'
p195
sS'self'
p196
S'<pydal.adapters.sqlite.SQLiteAdapter object>'
p197
sS').select'
p198
S'<bound method SQLiteAdapter.select of <pydal.adapters.sqlite.SQLiteAdapter object>>'
p199
sS'attributes'
p200
S"{'limitby': (0, 1), 'orderby_on_limitby': False}"
p201
sS'global SQLiteAdapter'
p202
S"<class 'pydal.adapters.sqlite.SQLiteAdapter'>"
p203
sS'query'
p204
S'<Query (publisher.id = 2)>'
p205
sS'builtinsuper'
p206
S"<type 'super'>"
p207
ssg70
I123
sg71
(dp208
I118
S'        Note that the entire database, rather than one record, is locked'
p209
sI119
S'        (it will be locked eventually anyway by the following UPDATE).'
p210
sI120
S'        """'
p211
sI121
S"        if attributes.get('for_update', False) and not 'cache' in attributes:"
p212
sI122
S"            self.execute('BEGIN IMMEDIATE TRANSACTION;')"
p213
sI123
S'        return super(SQLiteAdapter, self).select(query, fields, attributes)'
p214
sI124
S''
sI125
S''
sI126
S'SPATIALLIBS = {'
p215
sI127
S"    'Windows':'mod_spatialite.dll',"
p216
ssg83
S"(self=<pydal.adapters.sqlite.SQLiteAdapter object>, query=<Query (publisher.id = 2)>, fields=[<pydal.objects.Field object>, <pydal.objects.Field object>, <pydal.objects.Field object>, <pydal.objects.Field object>, <pydal.objects.Field object>, <pydal.objects.Field object>, <pydal.objects.Field object>], attributes={'limitby': (0, 1), 'orderby_on_limitby': False})"
p217
sg85
g190
sa(dp218
g62
S'/opt/python/web2py/web2py/gluon/packages/dal/pydal/adapters/base.py'
p219
sg64
(dp220
S'fields'
p221
S'[<pydal.objects.Field object>, <pydal.objects.Field object>, <pydal.objects.Field object>, <pydal.objects.Field object>, <pydal.objects.Field object>, <pydal.objects.Field object>, <pydal.objects.Field object>]'
p222
sS'self'
p223
S'<pydal.adapters.sqlite.SQLiteAdapter object>'
p224
sS'attributes'
p225
S"{'limitby': (0, 1), 'orderby_on_limitby': False}"
p226
sS'self._select_aux'
p227
S'<bound method SQLiteAdapter._select_aux of <pydal.adapters.sqlite.SQLiteAdapter object>>'
p228
sS'sql'
p229
S"'SELECT  publisher.id, publisher.name, publisher....lisher WHERE (publisher.id = 2) LIMIT 1 OFFSET 0;'"
p230
ssg70
I1296
sg71
(dp231
I1291
S'            return cache_model('
p232
sI1292
S'                key,'
p233
sI1293
S'                lambda self=self,args=args:self._select_aux(*args),'
p234
sI1294
S'                time_expire)'
p235
sI1295
S'        else:'
p236
sI1296
S'            return self._select_aux(sql,fields,attributes)'
p237
sI1297
S''
sI1298
S'    def iterselect(self, query, fields, attributes):'
p238
sI1299
S'        sql = self._select(query, fields, attributes)'
p239
sI1300
S"        cacheable = attributes.get('cacheable', False)"
p240
ssg83
S"(self=<pydal.adapters.sqlite.SQLiteAdapter object>, query=<Query (publisher.id = 2)>, fields=[<pydal.objects.Field object>, <pydal.objects.Field object>, <pydal.objects.Field object>, <pydal.objects.Field object>, <pydal.objects.Field object>, <pydal.objects.Field object>, <pydal.objects.Field object>], attributes={'limitby': (0, 1), 'orderby_on_limitby': False})"
p241
sg85
g190
sa(dp242
g62
S'/opt/python/web2py/web2py/gluon/packages/dal/pydal/adapters/base.py'
p243
sg64
(dp244
S'self'
p245
S'<pydal.adapters.sqlite.SQLiteAdapter object>'
p246
sS'self.execute'
p247
S'<bound method SQLiteAdapter.execute of <pydal.adapters.sqlite.SQLiteAdapter object>>'
p248
sS'sql'
p249
S"'SELECT  publisher.id, publisher.name, publisher....lisher WHERE (publisher.id = 2) LIMIT 1 OFFSET 0;'"
p250
ssg70
I1253
sg71
(dp251
I1248
S''
sI1249
S'    def _select_aux(self, sql, fields, attributes):'
p252
sI1250
S'        args_get = attributes.get'
p253
sI1251
S"        cache = args_get('cache',None)"
p254
sI1252
S'        if not cache:'
p255
sI1253
S'            self.execute(sql)'
p256
sI1254
S'            rows = self._fetchall()'
p257
sI1255
S'        else:'
p258
sI1256
S'            if isinstance(cache, dict):'
p259
sI1257
S"                cache_model = cache['model']"
p260
ssg83
S"(self=<pydal.adapters.sqlite.SQLiteAdapter object>, sql='SELECT  publisher.id, publisher.name, publisher....lisher WHERE (publisher.id = 2) LIMIT 1 OFFSET 0;', fields=[<pydal.objects.Field object>, <pydal.objects.Field object>, <pydal.objects.Field object>, <pydal.objects.Field object>, <pydal.objects.Field object>, <pydal.objects.Field object>, <pydal.objects.Field object>], attributes={'limitby': (0, 1), 'orderby_on_limitby': False})"
p261
sg85
S'_select_aux'
p262
sa(dp263
g62
S'/opt/python/web2py/web2py/gluon/packages/dal/pydal/adapters/base.py'
p264
sg64
(dp265
S'a'
S"('SELECT  publisher.id, publisher.name, publisher....lisher WHERE (publisher.id = 2) LIMIT 1 OFFSET 0;',)"
p266
sS'self'
p267
S'<pydal.adapters.sqlite.SQLiteAdapter object>'
p268
sS'b'
g45
sS'self.log_execute'
p269
S'<bound method SQLiteAdapter.log_execute of <pydal.adapters.sqlite.SQLiteAdapter object>>'
p270
ssg70
I1388
sg71
(dp271
I1383
S'        self.db._timings.append((command,time.time()-t0))'
p272
sI1384
S'        del self.db._timings[:-TIMINGSSIZE]'
p273
sI1385
S'        return ret'
p274
sI1386
S''
sI1387
S'    def execute(self, *a, **b):'
p275
sI1388
S'        return self.log_execute(*a, **b)'
p276
sI1389
S''
sI1390
S'    def execute_test_query(self):'
p277
sI1391
S'        return self.execute(self.test_query)'
p278
sI1392
S''
ssg83
S"(self=<pydal.adapters.sqlite.SQLiteAdapter object>, *a=('SELECT  publisher.id, publisher.name, publisher....lisher WHERE (publisher.id = 2) LIMIT 1 OFFSET 0;',), **b={})"
p279
sg85
S'execute'
p280
sa(dp281
g62
S'/opt/python/web2py/web2py/gluon/packages/dal/pydal/adapters/base.py'
p282
sg64
(dp283
S'a'
S"('SELECT  publisher.id, publisher.name, publisher....lisher WHERE (publisher.id = 2) LIMIT 1 OFFSET 0;',)"
p284
sS'self'
p285
S'<pydal.adapters.sqlite.SQLiteAdapter object>'
p286
sS'self.connection'
p287
S'None'
p288
sS'builtinValueError'
p289
S"<type 'exceptions.ValueError'>"
p290
ssg70
I1373
sg71
(dp291
I1376
S"        if hasattr(self,'filter_sql_command'):"
p292
sI1377
S'            command = self.filter_sql_command(command)'
p293
sI1368
S'    def create_sequence_and_triggers(self, query, table, **args):'
p294
sI1369
S'        self.execute(query)'
p295
sI1370
S''
sI1371
S''
sI1372
S'    def log_execute(self, *a, **b):'
p296
sI1373
S'        if not self.connection: raise ValueError(a[0])'
p297
sI1374
S'        if not self.connection: return None'
p298
sI1375
S'        command = a[0]'
p299
ssg83
S"(self=<pydal.adapters.sqlite.SQLiteAdapter object>, *a=('SELECT  publisher.id, publisher.name, publisher....lisher WHERE (publisher.id = 2) LIMIT 1 OFFSET 0;',), **b={})"
p300
sg85
S'log_execute'
p301
sasS'pyver'
p302
S'Python 2.7.12: /usr/bin/python (prefix: /usr)'
p303
sS'session'
p304
g57
(S's\x9f\x0e\x00\x00<div><table><tr><td style="font-weight:bold;vertical-align:top;">auth</td><td style="vertical-align:top;">:</td><td><div><table><tr><td style="font-weight:bold;vertical-align:top;">expiration</td><td style="vertical-align:top;">:</td><td><div>3600</div></td></tr><tr><td style="font-weight:bold;vertical-align:top;">hmac_key</td><td style="vertical-align:top;">:</td><td><div>202c99a1-8530-4c06-98a1-69438662bca8</div></td></tr><tr><td style="font-weight:bold;vertical-align:top;">last_visit</td><td style="vertical-align:top;">:</td><td><div>datetime.datetime(2017, 3, 21, 10, 36, 27, 645094)</div></td></tr><tr><td style="font-weight:bold;vertical-align:top;">remember_me</td><td style="vertical-align:top;">:</td><td><div>False</div></td></tr><tr><td style="font-weight:bold;vertical-align:top;">user</td><td style="vertical-align:top;">:</td><td><div><table><tr><td style="font-weight:bold;vertical-align:top;">categories</td><td style="vertical-align:top;">:</td><td><div><table><tr><td><div>3L</div></td></tr><tr><td><div>2L</div></td></tr></table></div></td></tr><tr><td style="font-weight:bold;vertical-align:top;">categories_review</td><td style="vertical-align:top;">:</td><td><div><table><tr><td><div>3L</div></td></tr><tr><td><div>2L</div></td></tr></table></div></td></tr><tr><td style="font-weight:bold;vertical-align:top;">conected</td><td style="vertical-align:top;">:</td><td><div>None</div></td></tr><tr><td style="font-weight:bold;vertical-align:top;">email</td><td style="vertical-align:top;">:</td><td><div>danilo@upr.edu.cu</div></td></tr><tr><td style="font-weight:bold;vertical-align:top;">first_name</td><td style="vertical-align:top;">:</td><td><div>Danilo</div></td></tr><tr><td style="font-weight:bold;vertical-align:top;">id</td><td style="vertical-align:top;">:</td><td><div>3L</div></td></tr><tr><td style="font-weight:bold;vertical-align:top;">last_name</td><td style="vertical-align:top;">:</td><td><div>Pereda</div></td></tr><tr><td style="font-weight:bold;vertical-align:top;">notification</td><td style="vertical-align:top;">:</td><td><div>True</div></td></tr><tr><td style="font-weight:bold;vertical-align:top;">photo</td><td style="vertical-align:top;">:</td><td><div>auth_user.photo.9e2c78185232970b.757365722d69636f6e2d362e706e67.png</div></td></tr><tr><td style="font-weight:bold;vertical-align:top;">registration_id</td><td style="vertical-align:top;">:</td><td><div></div></td></tr><tr><td style="font-weight:bold;vertical-align:top;">registration_key</td><td style="vertical-align:top;">:</td><td><div></div></td></tr><tr><td style="font-weight:bold;vertical-align:top;">reset_password_key</td><td style="vertical-align:top;">:</td><td><div></div></td></tr><tr><td style="font-weight:bold;vertical-align:top;">types</td><td style="vertical-align:top;">:</td><td><div><table><tr><td><div>2L</div></td></tr></table></div></td></tr><tr><td style="font-weight:bold;vertical-align:top;">username</td><td style="vertical-align:top;">:</td><td><div>danilo</div></td></tr></table></div></td></tr><tr><td style="font-weight:bold;vertical-align:top;">user_groups</td><td style="vertical-align:top;">:</td><td><div><table><tr><td style="font-weight:bold;vertical-align:top;">1</td><td style="vertical-align:top;">:</td><td><div>Administrador</div></td></tr><tr><td style="font-weight:bold;vertical-align:top;">2</td><td style="vertical-align:top;">:</td><td><div>Revisor</div></td></tr><tr><td style="font-weight:bold;vertical-align:top;">4</td><td style="vertical-align:top;">:</td><td><div>Publicador</div></td></tr></table></div></td></tr></table></div></td></tr><tr><td style="font-weight:bold;vertical-align:top;">flash</td><td style="vertical-align:top;">:</td><td><div>None</div></td></tr></table></div>'
tRp305
sS'etype'
p306
S"<type 'exceptions.ValueError'>"
p307
sS'date'
p308
S'Tue Mar 21 10:42:25 2017'
p309
sS'response'
p310
g57
(S's\xd60\x00\x00<div><table><tr><td style="font-weight:bold;vertical-align:top;">body</td><td style="vertical-align:top;">:</td><td><div>&lt;cStringIO.StringO object at 0x7ff0d4586ab0&gt;</div></td></tr><tr><td style="font-weight:bold;vertical-align:top;">cookies</td><td style="vertical-align:top;">:</td><td><div><table><tr><td style="font-weight:bold;vertical-align:top;">session_id_cvrf</td><td style="vertical-align:top;">:</td><td><div>17:7e443fd2-2290-452b-97ed-47e6e09c7343<table><tr><td style="font-weight:bold;vertical-align:top;">comment</td><td style="vertical-align:top;">:</td><td><div></div></td></tr><tr><td style="font-weight:bold;vertical-align:top;">domain</td><td style="vertical-align:top;">:</td><td><div></div></td></tr><tr><td style="font-weight:bold;vertical-align:top;">expires</td><td style="vertical-align:top;">:</td><td><div></div></td></tr><tr><td style="font-weight:bold;vertical-align:top;">httponly</td><td style="vertical-align:top;">:</td><td><div></div></td></tr><tr><td style="font-weight:bold;vertical-align:top;">max-age</td><td style="vertical-align:top;">:</td><td><div></div></td></tr><tr><td style="font-weight:bold;vertical-align:top;">path</td><td style="vertical-align:top;">:</td><td><div>/</div></td></tr><tr><td style="font-weight:bold;vertical-align:top;">secure</td><td style="vertical-align:top;">:</td><td><div></div></td></tr><tr><td style="font-weight:bold;vertical-align:top;">version</td><td style="vertical-align:top;">:</td><td><div></div></td></tr></table></div></td></tr></table></div></td></tr><tr><td style="font-weight:bold;vertical-align:top;">delimiters</td><td style="vertical-align:top;">:</td><td><div><table><tr><td><div>{{</div></td></tr><tr><td><div>}}</div></td></tr></table></div></td></tr><tr><td style="font-weight:bold;vertical-align:top;">files</td><td style="vertical-align:top;">:</td><td><div><table></table></div></td></tr><tr><td style="font-weight:bold;vertical-align:top;">flash</td><td style="vertical-align:top;">:</td><td><div></div></td></tr><tr><td style="font-weight:bold;vertical-align:top;">form_label_separator</td><td style="vertical-align:top;">:</td><td><div></div></td></tr><tr><td style="font-weight:bold;vertical-align:top;">formstyle</td><td style="vertical-align:top;">:</td><td><div>bootstrap3_inline</div></td></tr><tr><td style="font-weight:bold;vertical-align:top;">generic_patterns</td><td style="vertical-align:top;">:</td><td><div><table><tr><td><div>*</div></td></tr></table></div></td></tr><tr><td style="font-weight:bold;vertical-align:top;">google_analytics_id</td><td style="vertical-align:top;">:</td><td><div>None</div></td></tr><tr><td style="font-weight:bold;vertical-align:top;">headers</td><td style="vertical-align:top;">:</td><td><div><table><tr><td style="font-weight:bold;vertical-align:top;">X-Powered-By</td><td style="vertical-align:top;">:</td><td><div>web2py</div></td></tr></table></div></td></tr><tr><td style="font-weight:bold;vertical-align:top;">logo</td><td style="vertical-align:top;">:</td><td><div><h5><a class="navbar-brand-name" data-target="#index" href="/cvrf/default/index.load" id="index"><img class="logo" src="/cvrf/static/img/favicon.png" /></a></h5></div></td></tr><tr><td style="font-weight:bold;vertical-align:top;">menu</td><td style="vertical-align:top;">:</td><td><div><table><tr><td><div><table><tr><td><div>home</div></td></tr><tr><td><div>False</div></td></tr><tr><td><div><a data-target="#homepage" href="/cvrf/default/index.load#homepage">Inicio</a></div></td></tr></table></div></td></tr><tr><td><div><table><tr><td><div>services</div></td></tr><tr><td><div>False</div></td></tr><tr><td><div><a data-target="#services" href="/cvrf/default/index.load#services">Servicios</a></div></td></tr></table></div></td></tr><tr><td><div><table><tr><td><div>about</div></td></tr><tr><td><div>False</div></td></tr><tr><td><div><a data-target="#about" href="/cvrf/default/index.load#about">Acerca de</a></div></td></tr></table></div></td></tr><tr><td><div><table><tr><td><div>information</div></td></tr><tr><td><div>False</div></td></tr><tr><td><div><a data-target="#information" href="/cvrf/default/index.load#information">Contact us</a></div></td></tr></table></div></td></tr><tr><td><div><table><tr><td><div>Administration</div></td></tr><tr><td><div>False</div></td></tr><tr><td><div>/cvrf/default/dashboard.load</div></td></tr><tr><td><div><table><tr><td><div><table><tr><td><div>user_roles</div></td></tr><tr><td><div>False</div></td></tr><tr><td><div><a data-target="#user_roles" href="/cvrf/admin/user_roles.load"><ico class="glyphicon glyphicon-user"></ico> Users</a></div></td></tr></table></div></td></tr><tr><td><div><table><tr><td><div>website</div></td></tr><tr><td><div>False</div></td></tr><tr><td><div><a data-target="#website" href="/cvrf/admin/website.load"><ico class="glyphicon glyphicon-home"></ico> Website</a></div></td></tr></table></div></td></tr><tr><td><div><table><tr><td><div>admin</div></td></tr><tr><td><div>False</div></td></tr><tr><td><div><a data-target="#admin" href="/cvrf/resource/admin.load"><ico class="glyphicon glyphicon-book"></ico> Resources</a></div></td></tr></table></div></td></tr><tr><td><div><table><tr><td><div>upload</div></td></tr><tr><td><div>False</div></td></tr><tr><td><div><a data-target="#upload_multiple" href="/cvrf/resource/upload_multiple.load"><ico class="glyphicon glyphicon-upload"></ico> Multiple Uploads</a></div></td></tr></table></div></td></tr><tr><td><div><table><tr><td><div>manage</div></td></tr><tr><td><div>False</div></td></tr><tr><td><div><a data-target="#manage" href="/cvrf/appadmin/index.load"><ico class="glyphicon glyphicon-lock"></ico> Appadmin</a></div></td></tr></table></div></td></tr><tr><td><div><table><tr><td><div>category</div></td></tr><tr><td><div>False</div></td></tr><tr><td><div><a data-target="#category" href="/cvrf/admin/category.load"><ico class="glyphicon glyphicon-tags"></ico> Categories</a></div></td></tr></table></div></td></tr><tr><td><div><table><tr><td><div>scheduler_task</div></td></tr><tr><td><div>False</div></td></tr><tr><td><div><a data-target="#scheduler_task" href="/cvrf/admin/scheduler_task.load"><ico class="glyphicon glyphicon-tasks"></ico> Scheduler Task</a></div></td></tr></table></div></td></tr><tr><td><div><table><tr><td><div>rtype</div></td></tr><tr><td><div>False</div></td></tr><tr><td><div><a data-target="#rtype" href="/cvrf/admin/table.load/rtype"><ico class="glyphicon glyphicon-tag"></ico> Types</a></div></td></tr></table></div></td></tr><tr><td><div><table><tr><td><div>language</div></td></tr><tr><td><div>False</div></td></tr><tr><td><div><a data-target="#language" href="/cvrf/resource/admin_table.load/language"><ico class="glyphicon glyphicon-flag"></ico> Language</a></div></td></tr></table></div></td></tr></table></div></td></tr></table></div></td></tr><tr><td><div><table><tr><td><div>Resource</div></td></tr><tr><td><div>False</div></td></tr><tr><td><div>/cvrf/default/dashboard.load</div></td></tr><tr><td><div><table><tr><td><div><table><tr><td><div>dashboard</div></td></tr><tr><td><div>False</div></td></tr><tr><td><div><a data-target="#dashboard" href="/cvrf/default/dashboard.load"><ico class="glyphicon glyphicon-home"></ico> Dashboard</a></div></td></tr></table></div></td></tr><tr><td><div><table><tr><td><div>upload</div></td></tr><tr><td><div>False</div></td></tr><tr><td><div><a data-target="#edites" href="/cvrf/resource/edites.load"><ico class="glyphicon glyphicon-upload"></ico> Upload and edit</a></div></td></tr></table></div></td></tr><tr><td><div><table><tr><td><div>resources</div></td></tr><tr><td><div>False</div></td></tr><tr><td><div><a data-target="#my_briefcase" href="/cvrf/resource/my_briefcase.load"><ico class="glyphicon glyphicon-briefcase"></ico> Mi malet\xc3\xadn</a></div></td></tr></table></div></td></tr><tr><td><div><table><tr><td><div>revised</div></td></tr><tr><td><div>False</div></td></tr><tr><td><div><a data-target="#revised" href="/cvrf/resource/revised.load"><ico class="glyphicon glyphicon-book"></ico> To Revised</a></div></td></tr></table></div></td></tr><tr><td><div><table><tr><td><div>publisher</div></td></tr><tr><td><div>False</div></td></tr><tr><td><div><a data-target="#publisher" href="/cvrf/resource/admin_table.load/publisher"><ico class="glyphicon glyphicon-edit"></ico> Publisher</a></div></td></tr></table></div></td></tr><tr><td><div><table><tr><td><div>publish</div></td></tr><tr><td><div>False</div></td></tr><tr><td><div><a data-target="#publish" href="/cvrf/resource/publish.load"><ico class="glyphicon glyphicon-leaf"></ico> To Published</a></div></td></tr></table></div></td></tr></table></div></td></tr></table></div></td></tr></table></div></td></tr><tr><td style="font-weight:bold;vertical-align:top;">meta</td><td style="vertical-align:top;">:</td><td><div><table><tr><td style="font-weight:bold;vertical-align:top;">author</td><td style="vertical-align:top;">:</td><td><div>ysantalla@upr.edu.cu</div></td></tr><tr><td style="font-weight:bold;vertical-align:top;">description</td><td style="vertical-align:top;">:</td><td><div>FASDF</div></td></tr><tr><td style="font-weight:bold;vertical-align:top;">generator</td><td style="vertical-align:top;">:</td><td><div>Web2py Web Framework</div></td></tr><tr><td style="font-weight:bold;vertical-align:top;">keywords</td><td style="vertical-align:top;">:</td><td><div>FSDF</div></td></tr></table></div></td></tr><tr><td style="font-weight:bold;vertical-align:top;">models_to_run</td><td style="vertical-align:top;">:</td><td><div><table><tr><td><div>^\\w+\\.py$</div></td></tr><tr><td><div>^resource/\\w+\\.py$</div></td></tr><tr><td><div>^resource/search_component/\\w+\\.py$</div></td></tr></table></div></td></tr><tr><td style="font-weight:bold;vertical-align:top;">postprocessing</td><td style="vertical-align:top;">:</td><td><div><table></table></div></td></tr><tr><td style="font-weight:bold;vertical-align:top;">session_client</td><td style="vertical-align:top;">:</td><td><div>127.0.0.1</div></td></tr><tr><td style="font-weight:bold;vertical-align:top;">session_cookie_compression_level</td><td style="vertical-align:top;">:</td><td><div>None</div></td></tr><tr><td style="font-weight:bold;vertical-align:top;">session_cookie_expires</td><td style="vertical-align:top;">:</td><td><div>None</div></td></tr><tr><td style="font-weight:bold;vertical-align:top;">session_data_name</td><td style="vertical-align:top;">:</td><td><div>session_data_cvrf</div></td></tr><tr><td style="font-weight:bold;vertical-align:top;">session_db_record_id</td><td style="vertical-align:top;">:</td><td><div>17L</div></td></tr><tr><td style="font-weight:bold;vertical-align:top;">session_db_table</td><td style="vertical-align:top;">:</td><td><div>&lt;Table web2py_session_cvrf (id, locked, client_ip, created_datetime, modified_datetime, unique_key, session_data)&gt;</div></td></tr><tr><td style="font-weight:bold;vertical-align:top;">session_db_unique_key</td><td style="vertical-align:top;">:</td><td><div>7e443fd2-2290-452b-97ed-47e6e09c7343</div></td></tr><tr><td style="font-weight:bold;vertical-align:top;">session_hash</td><td style="vertical-align:top;">:</td><td><div>f82a05d6e4e3b4ae3e8ae02700041c70</div></td></tr><tr><td style="font-weight:bold;vertical-align:top;">session_id</td><td style="vertical-align:top;">:</td><td><div>17:7e443fd2-2290-452b-97ed-47e6e09c7343</div></td></tr><tr><td style="font-weight:bold;vertical-align:top;">session_id_name</td><td style="vertical-align:top;">:</td><td><div>session_id_cvrf</div></td></tr><tr><td style="font-weight:bold;vertical-align:top;">session_masterapp</td><td style="vertical-align:top;">:</td><td><div>cvrf</div></td></tr><tr><td style="font-weight:bold;vertical-align:top;">session_new</td><td style="vertical-align:top;">:</td><td><div>False</div></td></tr><tr><td style="font-weight:bold;vertical-align:top;">session_storage_type</td><td style="vertical-align:top;">:</td><td><div>db</div></td></tr><tr><td style="font-weight:bold;vertical-align:top;">status</td><td style="vertical-align:top;">:</td><td><div>200</div></td></tr><tr><td style="font-weight:bold;vertical-align:top;">subtitle</td><td style="vertical-align:top;">:</td><td><div>FASDF</div></td></tr><tr><td style="font-weight:bold;vertical-align:top;">title</td><td style="vertical-align:top;">:</td><td><div> | UPR</div></td></tr><tr><td style="font-weight:bold;vertical-align:top;">view</td><td style="vertical-align:top;">:</td><td><div>resource/search_component.load</div></td></tr></table></div>'
tRp311
sS'locals'
p312
(dp313
S'a'
S"('SELECT  publisher.id, publisher.name, publisher....lisher WHERE (publisher.id = 2) LIMIT 1 OFFSET 0;',)"
p314
sS'self'
p315
S'<pydal.adapters.sqlite.SQLiteAdapter object>'
p316
sS'b'
g45
sssS'traceback'
p317
S'Traceback (most recent call last):\n  File "/opt/python/web2py/web2py/gluon/restricted.py", line 227, in restricted\n    exec ccode in environment\n  File "/opt/python/web2py/web2py/applications/cvrf/views/resource/search_component.load", line 63, in <module>\n    </h3>\n  File "/opt/python/web2py/web2py/gluon/packages/dal/pydal/helpers/classes.py", line 107, in __getattr__\n    self.__allocate()\n  File "/opt/python/web2py/web2py/gluon/packages/dal/pydal/helpers/classes.py", line 96, in __allocate\n    self._record = self._table[long(self)]\n  File "/opt/python/web2py/web2py/gluon/packages/dal/pydal/objects.py", line 504, in __getitem__\n    orderby_on_limitby=False\n  File "/opt/python/web2py/web2py/gluon/packages/dal/pydal/objects.py", line 2020, in select\n    return adapter.select(self.query, fields, attributes)\n  File "/opt/python/web2py/web2py/gluon/packages/dal/pydal/adapters/sqlite.py", line 123, in select\n    return super(SQLiteAdapter, self).select(query, fields, attributes)\n  File "/opt/python/web2py/web2py/gluon/packages/dal/pydal/adapters/base.py", line 1296, in select\n    return self._select_aux(sql,fields,attributes)\n  File "/opt/python/web2py/web2py/gluon/packages/dal/pydal/adapters/base.py", line 1253, in _select_aux\n    self.execute(sql)\n  File "/opt/python/web2py/web2py/gluon/packages/dal/pydal/adapters/base.py", line 1388, in execute\n    return self.log_execute(*a, **b)\n  File "/opt/python/web2py/web2py/gluon/packages/dal/pydal/adapters/base.py", line 1373, in log_execute\n    if not self.connection: raise ValueError(a[0])\nValueError: SELECT  publisher.id, publisher.name, publisher.is_active, publisher.created_on, publisher.created_by, publisher.modified_on, publisher.modified_by FROM publisher WHERE (publisher.id = 2) LIMIT 1 OFFSET 0;\n'
p318
s.